Archive member included because of file (symbol)

C:/Users/jon_000/Git/ALFRED_TEST/Release/arduino.ar(variant.cpp.o)
                              ./ALFRED_TEST.cpp.o (Serial)
C:/Users/jon_000/Git/ALFRED_TEST/Release/arduino.ar(Print.cpp.o)
                              ./ALFRED_TEST.cpp.o (Print::print(int, int))
C:/Users/jon_000/Git/ALFRED_TEST/Release/arduino.ar(RingBuffer.cpp.o)
                              C:/Users/jon_000/Git/ALFRED_TEST/Release/arduino.ar(variant.cpp.o) (RingBuffer::RingBuffer())
C:/Users/jon_000/Git/ALFRED_TEST/Release/arduino.ar(Stream.cpp.o)
                              ./ALFRED_TEST.cpp.o (Stream::readBytesUntil(char, char*, unsigned int))
C:/Users/jon_000/Git/ALFRED_TEST/Release/arduino.ar(UARTClass.cpp.o)
                              C:/Users/jon_000/Git/ALFRED_TEST/Release/arduino.ar(variant.cpp.o) (UARTClass::UARTClass(Uart*, IRQn, unsigned long, RingBuffer*))
C:/Users/jon_000/Git/ALFRED_TEST/Release/arduino.ar(USARTClass.cpp.o)
                              C:/Users/jon_000/Git/ALFRED_TEST/Release/arduino.ar(variant.cpp.o) (USARTClass::USARTClass(Usart*, IRQn, unsigned long, RingBuffer*))
C:/Users/jon_000/Git/ALFRED_TEST/Release/arduino.ar(WString.cpp.o)
                              C:/Users/jon_000/Git/ALFRED_TEST/Release/arduino.ar(Print.cpp.o) (String::operator[](unsigned int) const)
C:/Users/jon_000/Git/ALFRED_TEST/Release/arduino.ar(cxxabi-compat.cpp.o)
                              C:/Users/jon_000/Git/ALFRED_TEST/Release/arduino.ar(Print.cpp.o) (__cxa_pure_virtual)
C:/Users/jon_000/Git/ALFRED_TEST/Release/arduino.ar(itoa.c.o)
                              C:/Users/jon_000/Git/ALFRED_TEST/Release/arduino.ar(WString.cpp.o) (ltoa)
C:/Users/jon_000/Git/ALFRED_TEST/Release/arduino.ar(wiring.c.o)
                              C:/Users/jon_000/Git/ALFRED_TEST/Release/arduino.ar(Stream.cpp.o) (millis)
C:/Users/jon_000/Git/ALFRED_TEST/Release/arduino.ar(wiring_analog.c.o)
                              C:/Users/jon_000/Git/ALFRED_TEST/Release/arduino.ar(variant.cpp.o) (analogOutputInit)
C:/Users/jon_000/Git/ALFRED_TEST/Release/arduino.ar(wiring_digital.c.o)
                              ./ALFRED_TEST.cpp.o (digitalWrite)
C:/Users/jon_000/Git/ALFRED_TEST/Release/arduino.ar(dtostrf.c.o)
                              C:/Users/jon_000/Git/ALFRED_TEST/Release/arduino.ar(WString.cpp.o) (dtostrf)
C:/Users/jon_000/Git/ALFRED_TEST/Release/arduino.ar(hooks.c.o)
                              C:/Users/jon_000/Git/ALFRED_TEST/Release/arduino.ar(wiring.c.o) (yield)
C:/Arduino/hardware/arduino/sam/variants/arduino_due_x/libsam_sam3x8e_gcc_rel.a(pio.o)
                              C:/Users/jon_000/Git/ALFRED_TEST/Release/arduino.ar(wiring_digital.c.o) (PIO_PullUp)
C:/Arduino/hardware/arduino/sam/variants/arduino_due_x/libsam_sam3x8e_gcc_rel.a(pmc.o)
                              ./Libraries/DueTimer/DueTimer.cpp.o (pmc_enable_periph_clk)
C:/Arduino/hardware/arduino/sam/variants/arduino_due_x/libsam_sam3x8e_gcc_rel.a(pwmc.o)
                              C:/Users/jon_000/Git/ALFRED_TEST/Release/arduino.ar(wiring_analog.c.o) (PWMC_ConfigureChannel)
C:/Arduino/hardware/arduino/sam/variants/arduino_due_x/libsam_sam3x8e_gcc_rel.a(tc.o)
                              ./Libraries/DueTimer/DueTimer.cpp.o (TC_Configure)
C:/Arduino/hardware/arduino/sam/variants/arduino_due_x/libsam_sam3x8e_gcc_rel.a(timetick.o)
                              C:/Users/jon_000/Git/ALFRED_TEST/Release/arduino.ar(wiring.c.o) (GetTickCount)
C:/Arduino/hardware/arduino/sam/variants/arduino_due_x/libsam_sam3x8e_gcc_rel.a(wdt.o)
                              C:/Users/jon_000/Git/ALFRED_TEST/Release/arduino.ar(variant.cpp.o) (WDT_Disable)
C:/Arduino/hardware/arduino/sam/variants/arduino_due_x/libsam_sam3x8e_gcc_rel.a(system_sam3xa.o)
                              C:/Users/jon_000/Git/ALFRED_TEST/Release/arduino.ar(variant.cpp.o) (SystemInit)
C:/Arduino/hardware/arduino/sam/variants/arduino_due_x/libsam_sam3x8e_gcc_rel.a(startup_sam3xa.o)
                              (Reset_Handler)
C:/Arduino/hardware/arduino/sam/variants/arduino_due_x/libsam_sam3x8e_gcc_rel.a(adc.o)
                              C:/Users/jon_000/Git/ALFRED_TEST/Release/arduino.ar(variant.cpp.o) (adc_init)
C:/Arduino/hardware/arduino/sam/variants/arduino_due_x/libsam_sam3x8e_gcc_rel.a(uotghs.o)
                              C:/Arduino/hardware/arduino/sam/variants/arduino_due_x/libsam_sam3x8e_gcc_rel.a(startup_sam3xa.o) (UOTGHS_Handler)
C:/Arduino/hardware/arduino/sam/variants/arduino_due_x/libsam_sam3x8e_gcc_rel.a(dacc.o)
                              C:/Users/jon_000/Git/ALFRED_TEST/Release/arduino.ar(wiring_analog.c.o) (dacc_reset)
C:/Users/jon_000/Git/ALFRED_TEST/Release/arduino.ar(WInterrupts.c.o)
                              C:/Arduino/hardware/arduino/sam/variants/arduino_due_x/libsam_sam3x8e_gcc_rel.a(startup_sam3xa.o) (PIOA_Handler)
C:/Users/jon_000/Git/ALFRED_TEST/Release/arduino.ar(cortex_handlers.c.o)
                              C:/Arduino/hardware/arduino/sam/variants/arduino_due_x/libsam_sam3x8e_gcc_rel.a(startup_sam3xa.o) (SysTick_Handler)
C:/Users/jon_000/Git/ALFRED_TEST/Release/arduino.ar(main.cpp.o)
                              C:/Arduino/hardware/arduino/sam/variants/arduino_due_x/libsam_sam3x8e_gcc_rel.a(startup_sam3xa.o) (main)
C:/Users/jon_000/Git/ALFRED_TEST/Release/arduino.ar(USBCore.cpp.o)
                              C:/Users/jon_000/Git/ALFRED_TEST/Release/arduino.ar(main.cpp.o) (USBDevice_::attach())
C:/Users/jon_000/Git/ALFRED_TEST/Release/arduino.ar(Reset.cpp.o)
                              C:/Users/jon_000/Git/ALFRED_TEST/Release/arduino.ar(cortex_handlers.c.o) (tickReset)
C:/Users/jon_000/Git/ALFRED_TEST/Release/arduino.ar(CDC.cpp.o)
                              C:/Users/jon_000/Git/ALFRED_TEST/Release/arduino.ar(USBCore.cpp.o) (Serial_::accept())
C:/Users/jon_000/Git/ALFRED_TEST/Release/arduino.ar(HID.cpp.o)
                              C:/Users/jon_000/Git/ALFRED_TEST/Release/arduino.ar(USBCore.cpp.o) (HID_Setup(Setup&))
C:/Arduino/hardware/arduino/sam/variants/arduino_due_x/libsam_sam3x8e_gcc_rel.a(interrupt_sam_nvic.o)
                              C:/Users/jon_000/Git/ALFRED_TEST/Release/arduino.ar(USBCore.cpp.o) (g_interrupt_enabled)
C:/Arduino/hardware/arduino/sam/variants/arduino_due_x/libsam_sam3x8e_gcc_rel.a(uotghs_device.o)
                              C:/Users/jon_000/Git/ALFRED_TEST/Release/arduino.ar(USBCore.cpp.o) (UDD_SetStack)
c:/arduino/hardware/tools/g++_arm_none_eabi/bin/../lib/gcc/arm-none-eabi/4.4.1/../../../../arm-none-eabi/lib/thumb2\libm.a(lib_a-s_isinfd.o)
                              C:/Users/jon_000/Git/ALFRED_TEST/Release/arduino.ar(Print.cpp.o) (__isinfd)
c:/arduino/hardware/tools/g++_arm_none_eabi/bin/../lib/gcc/arm-none-eabi/4.4.1/../../../../arm-none-eabi/lib/thumb2\libm.a(lib_a-s_isnand.o)
                              C:/Users/jon_000/Git/ALFRED_TEST/Release/arduino.ar(Print.cpp.o) (__isnand)
c:/arduino/hardware/tools/g++_arm_none_eabi/bin/../lib/gcc/arm-none-eabi/4.4.1/thumb2\libgcc.a(_arm_addsubdf3.o)
                              ./Libraries/DueTimer/DueTimer.cpp.o (__aeabi_dsub)
c:/arduino/hardware/tools/g++_arm_none_eabi/bin/../lib/gcc/arm-none-eabi/4.4.1/thumb2\libgcc.a(_arm_muldivdf3.o)
                              ./Libraries/DueTimer/DueTimer.cpp.o (__aeabi_dmul)
c:/arduino/hardware/tools/g++_arm_none_eabi/bin/../lib/gcc/arm-none-eabi/4.4.1/thumb2\libgcc.a(_arm_cmpdf2.o)
                              C:/Users/jon_000/Git/ALFRED_TEST/Release/arduino.ar(Print.cpp.o) (__aeabi_dcmplt)
c:/arduino/hardware/tools/g++_arm_none_eabi/bin/../lib/gcc/arm-none-eabi/4.4.1/thumb2\libgcc.a(_arm_fixdfsi.o)
                              ./Libraries/DueTimer/DueTimer.cpp.o (__aeabi_d2iz)
c:/arduino/hardware/tools/g++_arm_none_eabi/bin/../lib/gcc/arm-none-eabi/4.4.1/thumb2\libgcc.a(_arm_fixunsdfsi.o)
                              C:/Users/jon_000/Git/ALFRED_TEST/Release/arduino.ar(Print.cpp.o) (__aeabi_d2uiz)
c:/arduino/hardware/tools/g++_arm_none_eabi/bin/../lib/gcc/arm-none-eabi/4.4.1/thumb2\libgcc.a(_arm_truncdfsf2.o)
                              ./Libraries/DueTimer/DueTimer.cpp.o (__aeabi_d2f)
c:/arduino/hardware/tools/g++_arm_none_eabi/bin/../lib/gcc/arm-none-eabi/4.4.1/thumb2\libgcc.a(_arm_addsubsf3.o)
                              ./Libraries/DueTimer/DueTimer.cpp.o (__aeabi_fsub)
c:/arduino/hardware/tools/g++_arm_none_eabi/bin/../lib/gcc/arm-none-eabi/4.4.1/thumb2\libgcc.a(_arm_muldivsf3.o)
                              C:/Users/jon_000/Git/ALFRED_TEST/Release/arduino.ar(Stream.cpp.o) (__aeabi_fmul)
c:/arduino/hardware/tools/g++_arm_none_eabi/bin/../lib/gcc/arm-none-eabi/4.4.1/thumb2\libgcc.a(_arm_cmpsf2.o)
                              ./Libraries/DueTimer/DueTimer.cpp.o (__aeabi_fcmplt)
c:/arduino/hardware/tools/g++_arm_none_eabi/bin/../lib/gcc/arm-none-eabi/4.4.1/../../../../arm-none-eabi/lib/thumb2\libc.a(lib_a-assert.o)
                              C:/Arduino/hardware/arduino/sam/variants/arduino_due_x/libsam_sam3x8e_gcc_rel.a(pwmc.o) (__assert_func)
c:/arduino/hardware/tools/g++_arm_none_eabi/bin/../lib/gcc/arm-none-eabi/4.4.1/../../../../arm-none-eabi/lib/thumb2\libc.a(lib_a-atof.o)
                              C:/Users/jon_000/Git/ALFRED_TEST/Release/arduino.ar(WString.cpp.o) (atof)
c:/arduino/hardware/tools/g++_arm_none_eabi/bin/../lib/gcc/arm-none-eabi/4.4.1/../../../../arm-none-eabi/lib/thumb2\libc.a(lib_a-atol.o)
                              C:/Users/jon_000/Git/ALFRED_TEST/Release/arduino.ar(WString.cpp.o) (atol)
c:/arduino/hardware/tools/g++_arm_none_eabi/bin/../lib/gcc/arm-none-eabi/4.4.1/../../../../arm-none-eabi/lib/thumb2\libc.a(lib_a-fiprintf.o)
                              c:/arduino/hardware/tools/g++_arm_none_eabi/bin/../lib/gcc/arm-none-eabi/4.4.1/../../../../arm-none-eabi/lib/thumb2\libc.a(lib_a-assert.o) (fiprintf)
c:/arduino/hardware/tools/g++_arm_none_eabi/bin/../lib/gcc/arm-none-eabi/4.4.1/../../../../arm-none-eabi/lib/thumb2\libc.a(lib_a-impure.o)
                              c:/arduino/hardware/tools/g++_arm_none_eabi/bin/../lib/gcc/arm-none-eabi/4.4.1/../../../../arm-none-eabi/lib/thumb2\libc.a(lib_a-assert.o) (_impure_ptr)
c:/arduino/hardware/tools/g++_arm_none_eabi/bin/../lib/gcc/arm-none-eabi/4.4.1/../../../../arm-none-eabi/lib/thumb2\libc.a(lib_a-init.o)
                              C:/Users/jon_000/Git/ALFRED_TEST/Release/arduino.ar(variant.cpp.o) (__libc_init_array)
c:/arduino/hardware/tools/g++_arm_none_eabi/bin/../lib/gcc/arm-none-eabi/4.4.1/../../../../arm-none-eabi/lib/thumb2\libc.a(lib_a-iprintf.o)
                              C:/Users/jon_000/Git/ALFRED_TEST/Release/arduino/syscalls_sam3.c.o (iprintf)
c:/arduino/hardware/tools/g++_arm_none_eabi/bin/../lib/gcc/arm-none-eabi/4.4.1/../../../../arm-none-eabi/lib/thumb2\libc.a(lib_a-isspace.o)
                              C:/Users/jon_000/Git/ALFRED_TEST/Release/arduino.ar(WString.cpp.o) (isspace)
c:/arduino/hardware/tools/g++_arm_none_eabi/bin/../lib/gcc/arm-none-eabi/4.4.1/../../../../arm-none-eabi/lib/thumb2\libc.a(lib_a-malloc.o)
                              C:/Users/jon_000/Git/ALFRED_TEST/Release/arduino.ar(WString.cpp.o) (free)
c:/arduino/hardware/tools/g++_arm_none_eabi/bin/../lib/gcc/arm-none-eabi/4.4.1/../../../../arm-none-eabi/lib/thumb2\libc.a(lib_a-mallocr.o)
                              c:/arduino/hardware/tools/g++_arm_none_eabi/bin/../lib/gcc/arm-none-eabi/4.4.1/../../../../arm-none-eabi/lib/thumb2\libc.a(lib_a-malloc.o) (_malloc_r)
c:/arduino/hardware/tools/g++_arm_none_eabi/bin/../lib/gcc/arm-none-eabi/4.4.1/../../../../arm-none-eabi/lib/thumb2\libc.a(lib_a-memcpy.o)
                              C:/Users/jon_000/Git/ALFRED_TEST/Release/arduino.ar(WString.cpp.o) (memcpy)
c:/arduino/hardware/tools/g++_arm_none_eabi/bin/../lib/gcc/arm-none-eabi/4.4.1/../../../../arm-none-eabi/lib/thumb2\libc.a(lib_a-memmove.o)
                              C:/Users/jon_000/Git/ALFRED_TEST/Release/arduino.ar(WString.cpp.o) (memmove)
c:/arduino/hardware/tools/g++_arm_none_eabi/bin/../lib/gcc/arm-none-eabi/4.4.1/../../../../arm-none-eabi/lib/thumb2\libc.a(lib_a-memset.o)
                              ./ALFRED_TEST.cpp.o (memset)
c:/arduino/hardware/tools/g++_arm_none_eabi/bin/../lib/gcc/arm-none-eabi/4.4.1/../../../../arm-none-eabi/lib/thumb2\libc.a(lib_a-mlock.o)
                              c:/arduino/hardware/tools/g++_arm_none_eabi/bin/../lib/gcc/arm-none-eabi/4.4.1/../../../../arm-none-eabi/lib/thumb2\libc.a(lib_a-mallocr.o) (__malloc_lock)
c:/arduino/hardware/tools/g++_arm_none_eabi/bin/../lib/gcc/arm-none-eabi/4.4.1/../../../../arm-none-eabi/lib/thumb2\libc.a(lib_a-realloc.o)
                              C:/Users/jon_000/Git/ALFRED_TEST/Release/arduino.ar(WString.cpp.o) (realloc)
c:/arduino/hardware/tools/g++_arm_none_eabi/bin/../lib/gcc/arm-none-eabi/4.4.1/../../../../arm-none-eabi/lib/thumb2\libc.a(lib_a-reallocr.o)
                              c:/arduino/hardware/tools/g++_arm_none_eabi/bin/../lib/gcc/arm-none-eabi/4.4.1/../../../../arm-none-eabi/lib/thumb2\libc.a(lib_a-realloc.o) (_realloc_r)
c:/arduino/hardware/tools/g++_arm_none_eabi/bin/../lib/gcc/arm-none-eabi/4.4.1/../../../../arm-none-eabi/lib/thumb2\libc.a(lib_a-sbrkr.o)
                              c:/arduino/hardware/tools/g++_arm_none_eabi/bin/../lib/gcc/arm-none-eabi/4.4.1/../../../../arm-none-eabi/lib/thumb2\libc.a(lib_a-mallocr.o) (_sbrk_r)
c:/arduino/hardware/tools/g++_arm_none_eabi/bin/../lib/gcc/arm-none-eabi/4.4.1/../../../../arm-none-eabi/lib/thumb2\libc.a(lib_a-sprintf.o)
                              C:/Users/jon_000/Git/ALFRED_TEST/Release/arduino.ar(dtostrf.c.o) (sprintf)
c:/arduino/hardware/tools/g++_arm_none_eabi/bin/../lib/gcc/arm-none-eabi/4.4.1/../../../../arm-none-eabi/lib/thumb2\libc.a(lib_a-strchr.o)
                              C:/Users/jon_000/Git/ALFRED_TEST/Release/arduino.ar(WString.cpp.o) (strchr)
c:/arduino/hardware/tools/g++_arm_none_eabi/bin/../lib/gcc/arm-none-eabi/4.4.1/../../../../arm-none-eabi/lib/thumb2\libc.a(lib_a-strcmp.o)
                              C:/Users/jon_000/Git/ALFRED_TEST/Release/arduino.ar(WString.cpp.o) (strcmp)
c:/arduino/hardware/tools/g++_arm_none_eabi/bin/../lib/gcc/arm-none-eabi/4.4.1/../../../../arm-none-eabi/lib/thumb2\libc.a(lib_a-strcpy.o)
                              C:/Users/jon_000/Git/ALFRED_TEST/Release/arduino.ar(WString.cpp.o) (strcpy)
c:/arduino/hardware/tools/g++_arm_none_eabi/bin/../lib/gcc/arm-none-eabi/4.4.1/../../../../arm-none-eabi/lib/thumb2\libc.a(lib_a-strlen.o)
                              C:/Users/jon_000/Git/ALFRED_TEST/Release/arduino.ar(Print.cpp.o) (strlen)
c:/arduino/hardware/tools/g++_arm_none_eabi/bin/../lib/gcc/arm-none-eabi/4.4.1/../../../../arm-none-eabi/lib/thumb2\libc.a(lib_a-strncmp.o)
                              C:/Users/jon_000/Git/ALFRED_TEST/Release/arduino.ar(WString.cpp.o) (strncmp)
c:/arduino/hardware/tools/g++_arm_none_eabi/bin/../lib/gcc/arm-none-eabi/4.4.1/../../../../arm-none-eabi/lib/thumb2\libc.a(lib_a-strncpy.o)
                              C:/Users/jon_000/Git/ALFRED_TEST/Release/arduino.ar(WString.cpp.o) (strncpy)
c:/arduino/hardware/tools/g++_arm_none_eabi/bin/../lib/gcc/arm-none-eabi/4.4.1/../../../../arm-none-eabi/lib/thumb2\libc.a(lib_a-strrchr.o)
                              C:/Users/jon_000/Git/ALFRED_TEST/Release/arduino.ar(WString.cpp.o) (strrchr)
c:/arduino/hardware/tools/g++_arm_none_eabi/bin/../lib/gcc/arm-none-eabi/4.4.1/../../../../arm-none-eabi/lib/thumb2\libc.a(lib_a-strstr.o)
                              C:/Users/jon_000/Git/ALFRED_TEST/Release/arduino.ar(WString.cpp.o) (strstr)
c:/arduino/hardware/tools/g++_arm_none_eabi/bin/../lib/gcc/arm-none-eabi/4.4.1/../../../../arm-none-eabi/lib/thumb2\libc.a(lib_a-strtod.o)
                              c:/arduino/hardware/tools/g++_arm_none_eabi/bin/../lib/gcc/arm-none-eabi/4.4.1/../../../../arm-none-eabi/lib/thumb2\libc.a(lib_a-atof.o) (strtod)
c:/arduino/hardware/tools/g++_arm_none_eabi/bin/../lib/gcc/arm-none-eabi/4.4.1/../../../../arm-none-eabi/lib/thumb2\libc.a(lib_a-strtol.o)
                              c:/arduino/hardware/tools/g++_arm_none_eabi/bin/../lib/gcc/arm-none-eabi/4.4.1/../../../../arm-none-eabi/lib/thumb2\libc.a(lib_a-atol.o) (_strtol_r)
c:/arduino/hardware/tools/g++_arm_none_eabi/bin/../lib/gcc/arm-none-eabi/4.4.1/../../../../arm-none-eabi/lib/thumb2\libc.a(lib_a-svfprintf.o)
                              c:/arduino/hardware/tools/g++_arm_none_eabi/bin/../lib/gcc/arm-none-eabi/4.4.1/../../../../arm-none-eabi/lib/thumb2\libc.a(lib_a-sprintf.o) (_svfprintf_r)
c:/arduino/hardware/tools/g++_arm_none_eabi/bin/../lib/gcc/arm-none-eabi/4.4.1/../../../../arm-none-eabi/lib/thumb2\libc.a(lib_a-tolower.o)
                              C:/Users/jon_000/Git/ALFRED_TEST/Release/arduino.ar(WString.cpp.o) (tolower)
c:/arduino/hardware/tools/g++_arm_none_eabi/bin/../lib/gcc/arm-none-eabi/4.4.1/../../../../arm-none-eabi/lib/thumb2\libc.a(lib_a-toupper.o)
                              C:/Users/jon_000/Git/ALFRED_TEST/Release/arduino.ar(WString.cpp.o) (toupper)
c:/arduino/hardware/tools/g++_arm_none_eabi/bin/../lib/gcc/arm-none-eabi/4.4.1/../../../../arm-none-eabi/lib/thumb2\libc.a(lib_a-vfiprintf.o)
                              c:/arduino/hardware/tools/g++_arm_none_eabi/bin/../lib/gcc/arm-none-eabi/4.4.1/../../../../arm-none-eabi/lib/thumb2\libc.a(lib_a-fiprintf.o) (_vfiprintf_r)
c:/arduino/hardware/tools/g++_arm_none_eabi/bin/../lib/gcc/arm-none-eabi/4.4.1/../../../../arm-none-eabi/lib/thumb2\libc.a(lib_a-wsetup.o)
                              c:/arduino/hardware/tools/g++_arm_none_eabi/bin/../lib/gcc/arm-none-eabi/4.4.1/../../../../arm-none-eabi/lib/thumb2\libc.a(lib_a-vfiprintf.o) (__swsetup_r)
c:/arduino/hardware/tools/g++_arm_none_eabi/bin/../lib/gcc/arm-none-eabi/4.4.1/../../../../arm-none-eabi/lib/thumb2\libc.a(lib_a-abort.o)
                              c:/arduino/hardware/tools/g++_arm_none_eabi/bin/../lib/gcc/arm-none-eabi/4.4.1/../../../../arm-none-eabi/lib/thumb2\libc.a(lib_a-assert.o) (abort)
c:/arduino/hardware/tools/g++_arm_none_eabi/bin/../lib/gcc/arm-none-eabi/4.4.1/../../../../arm-none-eabi/lib/thumb2\libc.a(lib_a-ctype_.o)
                              c:/arduino/hardware/tools/g++_arm_none_eabi/bin/../lib/gcc/arm-none-eabi/4.4.1/../../../../arm-none-eabi/lib/thumb2\libc.a(lib_a-isspace.o) (__ctype_ptr__)
c:/arduino/hardware/tools/g++_arm_none_eabi/bin/../lib/gcc/arm-none-eabi/4.4.1/../../../../arm-none-eabi/lib/thumb2\libc.a(lib_a-dtoa.o)
                              c:/arduino/hardware/tools/g++_arm_none_eabi/bin/../lib/gcc/arm-none-eabi/4.4.1/../../../../arm-none-eabi/lib/thumb2\libc.a(lib_a-svfprintf.o) (_dtoa_r)
c:/arduino/hardware/tools/g++_arm_none_eabi/bin/../lib/gcc/arm-none-eabi/4.4.1/../../../../arm-none-eabi/lib/thumb2\libc.a(lib_a-fflush.o)
                              c:/arduino/hardware/tools/g++_arm_none_eabi/bin/../lib/gcc/arm-none-eabi/4.4.1/../../../../arm-none-eabi/lib/thumb2\libc.a(lib_a-vfiprintf.o) (_fflush_r)
c:/arduino/hardware/tools/g++_arm_none_eabi/bin/../lib/gcc/arm-none-eabi/4.4.1/../../../../arm-none-eabi/lib/thumb2\libc.a(lib_a-findfp.o)
                              c:/arduino/hardware/tools/g++_arm_none_eabi/bin/../lib/gcc/arm-none-eabi/4.4.1/../../../../arm-none-eabi/lib/thumb2\libc.a(lib_a-iprintf.o) (__sinit)
c:/arduino/hardware/tools/g++_arm_none_eabi/bin/../lib/gcc/arm-none-eabi/4.4.1/../../../../arm-none-eabi/lib/thumb2\libc.a(lib_a-freer.o)
                              c:/arduino/hardware/tools/g++_arm_none_eabi/bin/../lib/gcc/arm-none-eabi/4.4.1/../../../../arm-none-eabi/lib/thumb2\libc.a(lib_a-malloc.o) (_free_r)
c:/arduino/hardware/tools/g++_arm_none_eabi/bin/../lib/gcc/arm-none-eabi/4.4.1/../../../../arm-none-eabi/lib/thumb2\libc.a(lib_a-fvwrite.o)
                              c:/arduino/hardware/tools/g++_arm_none_eabi/bin/../lib/gcc/arm-none-eabi/4.4.1/../../../../arm-none-eabi/lib/thumb2\libc.a(lib_a-vfiprintf.o) (__sfvwrite_r)
c:/arduino/hardware/tools/g++_arm_none_eabi/bin/../lib/gcc/arm-none-eabi/4.4.1/../../../../arm-none-eabi/lib/thumb2\libc.a(lib_a-fwalk.o)
                              c:/arduino/hardware/tools/g++_arm_none_eabi/bin/../lib/gcc/arm-none-eabi/4.4.1/../../../../arm-none-eabi/lib/thumb2\libc.a(lib_a-fflush.o) (_fwalk_reent)
c:/arduino/hardware/tools/g++_arm_none_eabi/bin/../lib/gcc/arm-none-eabi/4.4.1/../../../../arm-none-eabi/lib/thumb2\libc.a(lib_a-gdtoa-gethex.o)
                              c:/arduino/hardware/tools/g++_arm_none_eabi/bin/../lib/gcc/arm-none-eabi/4.4.1/../../../../arm-none-eabi/lib/thumb2\libc.a(lib_a-strtod.o) (__gethex)
c:/arduino/hardware/tools/g++_arm_none_eabi/bin/../lib/gcc/arm-none-eabi/4.4.1/../../../../arm-none-eabi/lib/thumb2\libc.a(lib_a-gdtoa-hexnan.o)
                              c:/arduino/hardware/tools/g++_arm_none_eabi/bin/../lib/gcc/arm-none-eabi/4.4.1/../../../../arm-none-eabi/lib/thumb2\libc.a(lib_a-strtod.o) (__hexnan)
c:/arduino/hardware/tools/g++_arm_none_eabi/bin/../lib/gcc/arm-none-eabi/4.4.1/../../../../arm-none-eabi/lib/thumb2\libc.a(lib_a-locale.o)
                              c:/arduino/hardware/tools/g++_arm_none_eabi/bin/../lib/gcc/arm-none-eabi/4.4.1/../../../../arm-none-eabi/lib/thumb2\libc.a(lib_a-svfprintf.o) (_localeconv_r)
c:/arduino/hardware/tools/g++_arm_none_eabi/bin/../lib/gcc/arm-none-eabi/4.4.1/../../../../arm-none-eabi/lib/thumb2\libc.a(lib_a-makebuf.o)
                              c:/arduino/hardware/tools/g++_arm_none_eabi/bin/../lib/gcc/arm-none-eabi/4.4.1/../../../../arm-none-eabi/lib/thumb2\libc.a(lib_a-wsetup.o) (__smakebuf_r)
c:/arduino/hardware/tools/g++_arm_none_eabi/bin/../lib/gcc/arm-none-eabi/4.4.1/../../../../arm-none-eabi/lib/thumb2\libc.a(lib_a-memchr.o)
                              c:/arduino/hardware/tools/g++_arm_none_eabi/bin/../lib/gcc/arm-none-eabi/4.4.1/../../../../arm-none-eabi/lib/thumb2\libc.a(lib_a-strstr.o) (memchr)
c:/arduino/hardware/tools/g++_arm_none_eabi/bin/../lib/gcc/arm-none-eabi/4.4.1/../../../../arm-none-eabi/lib/thumb2\libc.a(lib_a-memcmp.o)
                              c:/arduino/hardware/tools/g++_arm_none_eabi/bin/../lib/gcc/arm-none-eabi/4.4.1/../../../../arm-none-eabi/lib/thumb2\libc.a(lib_a-strstr.o) (memcmp)
c:/arduino/hardware/tools/g++_arm_none_eabi/bin/../lib/gcc/arm-none-eabi/4.4.1/../../../../arm-none-eabi/lib/thumb2\libc.a(lib_a-mprec.o)
                              c:/arduino/hardware/tools/g++_arm_none_eabi/bin/../lib/gcc/arm-none-eabi/4.4.1/../../../../arm-none-eabi/lib/thumb2\libc.a(lib_a-dtoa.o) (__hi0bits)
c:/arduino/hardware/tools/g++_arm_none_eabi/bin/../lib/gcc/arm-none-eabi/4.4.1/../../../../arm-none-eabi/lib/thumb2\libc.a(lib_a-reent.o)
                              c:/arduino/hardware/tools/g++_arm_none_eabi/bin/../lib/gcc/arm-none-eabi/4.4.1/../../../../arm-none-eabi/lib/thumb2\libc.a(lib_a-sbrkr.o) (errno)
c:/arduino/hardware/tools/g++_arm_none_eabi/bin/../lib/gcc/arm-none-eabi/4.4.1/../../../../arm-none-eabi/lib/thumb2\libc.a(lib_a-signal.o)
                              c:/arduino/hardware/tools/g++_arm_none_eabi/bin/../lib/gcc/arm-none-eabi/4.4.1/../../../../arm-none-eabi/lib/thumb2\libc.a(lib_a-abort.o) (raise)
c:/arduino/hardware/tools/g++_arm_none_eabi/bin/../lib/gcc/arm-none-eabi/4.4.1/../../../../arm-none-eabi/lib/thumb2\libc.a(lib_a-signalr.o)
                              c:/arduino/hardware/tools/g++_arm_none_eabi/bin/../lib/gcc/arm-none-eabi/4.4.1/../../../../arm-none-eabi/lib/thumb2\libc.a(lib_a-signal.o) (_getpid_r)
c:/arduino/hardware/tools/g++_arm_none_eabi/bin/../lib/gcc/arm-none-eabi/4.4.1/../../../../arm-none-eabi/lib/thumb2\libc.a(lib_a-stdio.o)
                              c:/arduino/hardware/tools/g++_arm_none_eabi/bin/../lib/gcc/arm-none-eabi/4.4.1/../../../../arm-none-eabi/lib/thumb2\libc.a(lib_a-findfp.o) (__sclose)
c:/arduino/hardware/tools/g++_arm_none_eabi/bin/../lib/gcc/arm-none-eabi/4.4.1/../../../../arm-none-eabi/lib/thumb2\libc.a(lib_a-writer.o)
                              c:/arduino/hardware/tools/g++_arm_none_eabi/bin/../lib/gcc/arm-none-eabi/4.4.1/../../../../arm-none-eabi/lib/thumb2\libc.a(lib_a-stdio.o) (_write_r)
c:/arduino/hardware/tools/g++_arm_none_eabi/bin/../lib/gcc/arm-none-eabi/4.4.1/../../../../arm-none-eabi/lib/thumb2\libc.a(lib_a-callocr.o)
                              c:/arduino/hardware/tools/g++_arm_none_eabi/bin/../lib/gcc/arm-none-eabi/4.4.1/../../../../arm-none-eabi/lib/thumb2\libc.a(lib_a-mprec.o) (_calloc_r)
c:/arduino/hardware/tools/g++_arm_none_eabi/bin/../lib/gcc/arm-none-eabi/4.4.1/../../../../arm-none-eabi/lib/thumb2\libc.a(lib_a-closer.o)
                              c:/arduino/hardware/tools/g++_arm_none_eabi/bin/../lib/gcc/arm-none-eabi/4.4.1/../../../../arm-none-eabi/lib/thumb2\libc.a(lib_a-stdio.o) (_close_r)
c:/arduino/hardware/tools/g++_arm_none_eabi/bin/../lib/gcc/arm-none-eabi/4.4.1/../../../../arm-none-eabi/lib/thumb2\libc.a(lib_a-fclose.o)
                              c:/arduino/hardware/tools/g++_arm_none_eabi/bin/../lib/gcc/arm-none-eabi/4.4.1/../../../../arm-none-eabi/lib/thumb2\libc.a(lib_a-findfp.o) (fclose)
c:/arduino/hardware/tools/g++_arm_none_eabi/bin/../lib/gcc/arm-none-eabi/4.4.1/../../../../arm-none-eabi/lib/thumb2\libc.a(lib_a-fstatr.o)
                              c:/arduino/hardware/tools/g++_arm_none_eabi/bin/../lib/gcc/arm-none-eabi/4.4.1/../../../../arm-none-eabi/lib/thumb2\libc.a(lib_a-makebuf.o) (_fstat_r)
c:/arduino/hardware/tools/g++_arm_none_eabi/bin/../lib/gcc/arm-none-eabi/4.4.1/../../../../arm-none-eabi/lib/thumb2\libc.a(lib_a-isattyr.o)
                              c:/arduino/hardware/tools/g++_arm_none_eabi/bin/../lib/gcc/arm-none-eabi/4.4.1/../../../../arm-none-eabi/lib/thumb2\libc.a(lib_a-makebuf.o) (_isatty_r)
c:/arduino/hardware/tools/g++_arm_none_eabi/bin/../lib/gcc/arm-none-eabi/4.4.1/../../../../arm-none-eabi/lib/thumb2\libc.a(lib_a-lseekr.o)
                              c:/arduino/hardware/tools/g++_arm_none_eabi/bin/../lib/gcc/arm-none-eabi/4.4.1/../../../../arm-none-eabi/lib/thumb2\libc.a(lib_a-stdio.o) (_lseek_r)
c:/arduino/hardware/tools/g++_arm_none_eabi/bin/../lib/gcc/arm-none-eabi/4.4.1/../../../../arm-none-eabi/lib/thumb2\libc.a(lib_a-readr.o)
                              c:/arduino/hardware/tools/g++_arm_none_eabi/bin/../lib/gcc/arm-none-eabi/4.4.1/../../../../arm-none-eabi/lib/thumb2\libc.a(lib_a-stdio.o) (_read_r)
c:/arduino/hardware/tools/g++_arm_none_eabi/bin/../lib/gcc/arm-none-eabi/4.4.1/thumb2\libgcc.a(_udivsi3.o)
                              c:/arduino/hardware/tools/g++_arm_none_eabi/bin/../lib/gcc/arm-none-eabi/4.4.1/../../../../arm-none-eabi/lib/thumb2\libc.a(lib_a-strtol.o) (__aeabi_uidiv)
c:/arduino/hardware/tools/g++_arm_none_eabi/bin/../lib/gcc/arm-none-eabi/4.4.1/thumb2\libgcc.a(_dvmd_tls.o)
                              c:/arduino/hardware/tools/g++_arm_none_eabi/bin/../lib/gcc/arm-none-eabi/4.4.1/thumb2\libgcc.a(_udivsi3.o) (__aeabi_idiv0)
c:/arduino/hardware/tools/g++_arm_none_eabi/bin/../lib/gcc/arm-none-eabi/4.4.1/thumb2\libgcc.a(_aeabi_uldivmod.o)
                              c:/arduino/hardware/tools/g++_arm_none_eabi/bin/../lib/gcc/arm-none-eabi/4.4.1/../../../../arm-none-eabi/lib/thumb2\libc.a(lib_a-svfprintf.o) (__aeabi_uldivmod)
c:/arduino/hardware/tools/g++_arm_none_eabi/bin/../lib/gcc/arm-none-eabi/4.4.1/thumb2\libgcc.a(bpabi.o)
                              c:/arduino/hardware/tools/g++_arm_none_eabi/bin/../lib/gcc/arm-none-eabi/4.4.1/thumb2\libgcc.a(_aeabi_uldivmod.o) (__gnu_uldivmod_helper)
c:/arduino/hardware/tools/g++_arm_none_eabi/bin/../lib/gcc/arm-none-eabi/4.4.1/thumb2\libgcc.a(_divdi3.o)
                              c:/arduino/hardware/tools/g++_arm_none_eabi/bin/../lib/gcc/arm-none-eabi/4.4.1/thumb2\libgcc.a(bpabi.o) (__divdi3)
c:/arduino/hardware/tools/g++_arm_none_eabi/bin/../lib/gcc/arm-none-eabi/4.4.1/thumb2\libgcc.a(_udivdi3.o)
                              c:/arduino/hardware/tools/g++_arm_none_eabi/bin/../lib/gcc/arm-none-eabi/4.4.1/thumb2\libgcc.a(bpabi.o) (__udivdi3)

Allocating common symbols
Common symbol       size              file

errno               0x4               c:/arduino/hardware/tools/g++_arm_none_eabi/bin/../lib/gcc/arm-none-eabi/4.4.1/../../../../arm-none-eabi/lib/thumb2\libc.a(lib_a-reent.o)
__hexdig            0x100             c:/arduino/hardware/tools/g++_arm_none_eabi/bin/../lib/gcc/arm-none-eabi/4.4.1/../../../../arm-none-eabi/lib/thumb2\libc.a(lib_a-gdtoa-gethex.o)

Discarded input sections

 .text          0x00000000        0x0 c:/arduino/hardware/tools/g++_arm_none_eabi/bin/../lib/gcc/arm-none-eabi/4.4.1/thumb2/crti.o
 .data          0x00000000        0x0 c:/arduino/hardware/tools/g++_arm_none_eabi/bin/../lib/gcc/arm-none-eabi/4.4.1/thumb2/crti.o
 .bss           0x00000000        0x0 c:/arduino/hardware/tools/g++_arm_none_eabi/bin/../lib/gcc/arm-none-eabi/4.4.1/thumb2/crti.o
 .data          0x00000000        0x4 c:/arduino/hardware/tools/g++_arm_none_eabi/bin/../lib/gcc/arm-none-eabi/4.4.1/thumb2/crtbegin.o
 .text          0x00000000        0x0 C:/Users/jon_000/Git/ALFRED_TEST/Release/arduino/syscalls_sam3.c.o
 .data          0x00000000        0x0 C:/Users/jon_000/Git/ALFRED_TEST/Release/arduino/syscalls_sam3.c.o
 .bss           0x00000000        0x0 C:/Users/jon_000/Git/ALFRED_TEST/Release/arduino/syscalls_sam3.c.o
 .text.link     0x00000000        0x6 C:/Users/jon_000/Git/ALFRED_TEST/Release/arduino/syscalls_sam3.c.o
 .text          0x00000000        0x0 ./ALFRED_TEST.cpp.o
 .data          0x00000000        0x0 ./ALFRED_TEST.cpp.o
 .bss           0x00000000        0x0 ./ALFRED_TEST.cpp.o
 .bss.timerCounter
                0x00000000        0x1 ./ALFRED_TEST.cpp.o
 .bss.error     0x00000000        0x1 ./ALFRED_TEST.cpp.o
 .bss.Timer2Period
                0x00000000        0x4 ./ALFRED_TEST.cpp.o
 .bss.com       0x00000000        0x1 ./ALFRED_TEST.cpp.o
 .text          0x00000000        0x0 ./Libraries/DueTimer/DueTimer.cpp.o
 .data          0x00000000        0x0 ./Libraries/DueTimer/DueTimer.cpp.o
 .bss           0x00000000        0x0 ./Libraries/DueTimer/DueTimer.cpp.o
 .text._ZN8DueTimerC2Ei
                0x00000000        0x4 ./Libraries/DueTimer/DueTimer.cpp.o
 .text._ZN8DueTimer12getAvailableEv
                0x00000000       0x2c ./Libraries/DueTimer/DueTimer.cpp.o
 .text._ZN8DueTimer12getFrequencyEv
                0x00000000       0x14 ./Libraries/DueTimer/DueTimer.cpp.o
 .text._ZN8DueTimer9getPeriodEv
                0x00000000       0x38 ./Libraries/DueTimer/DueTimer.cpp.o
 .text._ZN8DueTimer15detachInterruptEv
                0x00000000       0x18 ./Libraries/DueTimer/DueTimer.cpp.o
 .text          0x00000000        0x0 C:/Users/jon_000/Git/ALFRED_TEST/Release/arduino.ar(variant.cpp.o)
 .data          0x00000000        0x0 C:/Users/jon_000/Git/ALFRED_TEST/Release/arduino.ar(variant.cpp.o)
 .bss           0x00000000        0x0 C:/Users/jon_000/Git/ALFRED_TEST/Release/arduino.ar(variant.cpp.o)
 .group         0x00000000        0x8 C:/Users/jon_000/Git/ALFRED_TEST/Release/arduino.ar(Print.cpp.o)
 .text          0x00000000        0x0 C:/Users/jon_000/Git/ALFRED_TEST/Release/arduino.ar(Print.cpp.o)
 .data          0x00000000        0x0 C:/Users/jon_000/Git/ALFRED_TEST/Release/arduino.ar(Print.cpp.o)
 .bss           0x00000000        0x0 C:/Users/jon_000/Git/ALFRED_TEST/Release/arduino.ar(Print.cpp.o)
 .text._ZN5Print5printERK9Printable
                0x00000000       0x10 C:/Users/jon_000/Git/ALFRED_TEST/Release/arduino.ar(Print.cpp.o)
 .text._ZN5Print7printlnEc
                0x00000000       0x14 C:/Users/jon_000/Git/ALFRED_TEST/Release/arduino.ar(Print.cpp.o)
 .text._ZN5Print7printlnERK9Printable
                0x00000000       0x14 C:/Users/jon_000/Git/ALFRED_TEST/Release/arduino.ar(Print.cpp.o)
 .text._ZN5Print5printEmi
                0x00000000       0x1a C:/Users/jon_000/Git/ALFRED_TEST/Release/arduino.ar(Print.cpp.o)
 .text._ZN5Print7printlnEmi
                0x00000000       0x14 C:/Users/jon_000/Git/ALFRED_TEST/Release/arduino.ar(Print.cpp.o)
 .text._ZN5Print5printEji
                0x00000000        0x4 C:/Users/jon_000/Git/ALFRED_TEST/Release/arduino.ar(Print.cpp.o)
 .text._ZN5Print7printlnEji
                0x00000000       0x14 C:/Users/jon_000/Git/ALFRED_TEST/Release/arduino.ar(Print.cpp.o)
 .text._ZN5Print5printEhi
                0x00000000        0x4 C:/Users/jon_000/Git/ALFRED_TEST/Release/arduino.ar(Print.cpp.o)
 .text._ZN5Print7printlnEhi
                0x00000000       0x14 C:/Users/jon_000/Git/ALFRED_TEST/Release/arduino.ar(Print.cpp.o)
 .text._ZN5Print7printlnEli
                0x00000000       0x14 C:/Users/jon_000/Git/ALFRED_TEST/Release/arduino.ar(Print.cpp.o)
 .text._ZN5Print10printFloatEdh
                0x00000000      0x13c C:/Users/jon_000/Git/ALFRED_TEST/Release/arduino.ar(Print.cpp.o)
 .text._ZN5Print5printEdi
                0x00000000        0xa C:/Users/jon_000/Git/ALFRED_TEST/Release/arduino.ar(Print.cpp.o)
 .text._ZN5Print7printlnEdi
                0x00000000       0x18 C:/Users/jon_000/Git/ALFRED_TEST/Release/arduino.ar(Print.cpp.o)
 .text._ZN5Print5printEPK19__FlashStringHelper
                0x00000000        0x4 C:/Users/jon_000/Git/ALFRED_TEST/Release/arduino.ar(Print.cpp.o)
 .text._ZN5Print7printlnEPK19__FlashStringHelper
                0x00000000       0x14 C:/Users/jon_000/Git/ALFRED_TEST/Release/arduino.ar(Print.cpp.o)
 .text._ZN5Print5printERK6String
                0x00000000       0x34 C:/Users/jon_000/Git/ALFRED_TEST/Release/arduino.ar(Print.cpp.o)
 .text._ZN5Print7printlnERK6String
                0x00000000       0x14 C:/Users/jon_000/Git/ALFRED_TEST/Release/arduino.ar(Print.cpp.o)
 .rodata._ZTV5Print
                0x00000000       0x10 C:/Users/jon_000/Git/ALFRED_TEST/Release/arduino.ar(Print.cpp.o)
 .rodata.str1.1
                0x00000000        0xe C:/Users/jon_000/Git/ALFRED_TEST/Release/arduino.ar(Print.cpp.o)
 .text          0x00000000        0x0 C:/Users/jon_000/Git/ALFRED_TEST/Release/arduino.ar(RingBuffer.cpp.o)
 .data          0x00000000        0x0 C:/Users/jon_000/Git/ALFRED_TEST/Release/arduino.ar(RingBuffer.cpp.o)
 .bss           0x00000000        0x0 C:/Users/jon_000/Git/ALFRED_TEST/Release/arduino.ar(RingBuffer.cpp.o)
 .text._ZN10RingBufferC2Ev
                0x00000000       0x16 C:/Users/jon_000/Git/ALFRED_TEST/Release/arduino.ar(RingBuffer.cpp.o)
 .text          0x00000000        0x0 C:/Users/jon_000/Git/ALFRED_TEST/Release/arduino.ar(Stream.cpp.o)
 .data          0x00000000        0x0 C:/Users/jon_000/Git/ALFRED_TEST/Release/arduino.ar(Stream.cpp.o)
 .bss           0x00000000        0x0 C:/Users/jon_000/Git/ALFRED_TEST/Release/arduino.ar(Stream.cpp.o)
 .text._ZN6Stream10setTimeoutEm
                0x00000000        0x4 C:/Users/jon_000/Git/ALFRED_TEST/Release/arduino.ar(Stream.cpp.o)
 .text._ZN6Stream9timedPeekEv
                0x00000000       0x2a C:/Users/jon_000/Git/ALFRED_TEST/Release/arduino.ar(Stream.cpp.o)
 .text._ZN6Stream13peekNextDigitEv
                0x00000000       0x26 C:/Users/jon_000/Git/ALFRED_TEST/Release/arduino.ar(Stream.cpp.o)
 .text._ZN6Stream10parseFloatEc
                0x00000000       0xa8 C:/Users/jon_000/Git/ALFRED_TEST/Release/arduino.ar(Stream.cpp.o)
 .text._ZN6Stream10parseFloatEv
                0x00000000        0x6 C:/Users/jon_000/Git/ALFRED_TEST/Release/arduino.ar(Stream.cpp.o)
 .text._ZN6Stream8parseIntEc
                0x00000000       0x50 C:/Users/jon_000/Git/ALFRED_TEST/Release/arduino.ar(Stream.cpp.o)
 .text._ZN6Stream8parseIntEv
                0x00000000        0x6 C:/Users/jon_000/Git/ALFRED_TEST/Release/arduino.ar(Stream.cpp.o)
 .text._ZN6Stream15readStringUntilEc
                0x00000000       0x30 C:/Users/jon_000/Git/ALFRED_TEST/Release/arduino.ar(Stream.cpp.o)
 .text._ZN6Stream10readStringEv
                0x00000000       0x2c C:/Users/jon_000/Git/ALFRED_TEST/Release/arduino.ar(Stream.cpp.o)
 .text._ZN6Stream9readBytesEPcj
                0x00000000       0x22 C:/Users/jon_000/Git/ALFRED_TEST/Release/arduino.ar(Stream.cpp.o)
 .text._ZN6Stream9findUntilEPcjS0_j
                0x00000000       0x64 C:/Users/jon_000/Git/ALFRED_TEST/Release/arduino.ar(Stream.cpp.o)
 .text._ZN6Stream9findUntilEPcS0_
                0x00000000       0x26 C:/Users/jon_000/Git/ALFRED_TEST/Release/arduino.ar(Stream.cpp.o)
 .text._ZN6Stream4findEPc
                0x00000000        0x6 C:/Users/jon_000/Git/ALFRED_TEST/Release/arduino.ar(Stream.cpp.o)
 .text._ZN6Stream4findEPcj
                0x00000000        0xc C:/Users/jon_000/Git/ALFRED_TEST/Release/arduino.ar(Stream.cpp.o)
 .rodata.str1.1
                0x00000000        0x1 C:/Users/jon_000/Git/ALFRED_TEST/Release/arduino.ar(Stream.cpp.o)
 .group         0x00000000        0x8 C:/Users/jon_000/Git/ALFRED_TEST/Release/arduino.ar(UARTClass.cpp.o)
 .group         0x00000000        0x8 C:/Users/jon_000/Git/ALFRED_TEST/Release/arduino.ar(UARTClass.cpp.o)
 .group         0x00000000        0x8 C:/Users/jon_000/Git/ALFRED_TEST/Release/arduino.ar(UARTClass.cpp.o)
 .text          0x00000000        0x0 C:/Users/jon_000/Git/ALFRED_TEST/Release/arduino.ar(UARTClass.cpp.o)
 .data          0x00000000        0x0 C:/Users/jon_000/Git/ALFRED_TEST/Release/arduino.ar(UARTClass.cpp.o)
 .bss           0x00000000        0x0 C:/Users/jon_000/Git/ALFRED_TEST/Release/arduino.ar(UARTClass.cpp.o)
 .text._ZN9UARTClassC2EP4Uart4IRQnmP10RingBuffer
                0x00000000       0x24 C:/Users/jon_000/Git/ALFRED_TEST/Release/arduino.ar(UARTClass.cpp.o)
 .text._ZN9UARTClass3endEv
                0x00000000       0x38 C:/Users/jon_000/Git/ALFRED_TEST/Release/arduino.ar(UARTClass.cpp.o)
 .rodata._ZTV14HardwareSerial
                0x00000000       0x28 C:/Users/jon_000/Git/ALFRED_TEST/Release/arduino.ar(UARTClass.cpp.o)
 .rodata._ZTV6Stream
                0x00000000       0x20 C:/Users/jon_000/Git/ALFRED_TEST/Release/arduino.ar(UARTClass.cpp.o)
 .group         0x00000000        0x8 C:/Users/jon_000/Git/ALFRED_TEST/Release/arduino.ar(USARTClass.cpp.o)
 .group         0x00000000        0x8 C:/Users/jon_000/Git/ALFRED_TEST/Release/arduino.ar(USARTClass.cpp.o)
 .group         0x00000000        0x8 C:/Users/jon_000/Git/ALFRED_TEST/Release/arduino.ar(USARTClass.cpp.o)
 .text          0x00000000        0x0 C:/Users/jon_000/Git/ALFRED_TEST/Release/arduino.ar(USARTClass.cpp.o)
 .data          0x00000000        0x0 C:/Users/jon_000/Git/ALFRED_TEST/Release/arduino.ar(USARTClass.cpp.o)
 .bss           0x00000000        0x0 C:/Users/jon_000/Git/ALFRED_TEST/Release/arduino.ar(USARTClass.cpp.o)
 .text._ZN10USARTClassC2EP5Usart4IRQnmP10RingBuffer
                0x00000000       0x24 C:/Users/jon_000/Git/ALFRED_TEST/Release/arduino.ar(USARTClass.cpp.o)
 .text._ZN10USARTClass3endEv
                0x00000000       0x38 C:/Users/jon_000/Git/ALFRED_TEST/Release/arduino.ar(USARTClass.cpp.o)
 .rodata._ZTV14HardwareSerial
                0x00000000       0x28 C:/Users/jon_000/Git/ALFRED_TEST/Release/arduino.ar(USARTClass.cpp.o)
 .rodata._ZTV6Stream
                0x00000000       0x20 C:/Users/jon_000/Git/ALFRED_TEST/Release/arduino.ar(USARTClass.cpp.o)
 .text          0x00000000        0x0 C:/Users/jon_000/Git/ALFRED_TEST/Release/arduino.ar(WString.cpp.o)
 .data          0x00000000        0x0 C:/Users/jon_000/Git/ALFRED_TEST/Release/arduino.ar(WString.cpp.o)
 .bss           0x00000000        0x0 C:/Users/jon_000/Git/ALFRED_TEST/Release/arduino.ar(WString.cpp.o)
 .text._ZN6String9setCharAtEjc
                0x00000000        0xc C:/Users/jon_000/Git/ALFRED_TEST/Release/arduino.ar(WString.cpp.o)
 .text._ZN6StringixEj
                0x00000000       0x1c C:/Users/jon_000/Git/ALFRED_TEST/Release/arduino.ar(WString.cpp.o)
 .text._ZNK6StringixEj
                0x00000000       0x12 C:/Users/jon_000/Git/ALFRED_TEST/Release/arduino.ar(WString.cpp.o)
 .text._ZNK6String6charAtEj
                0x00000000        0x4 C:/Users/jon_000/Git/ALFRED_TEST/Release/arduino.ar(WString.cpp.o)
 .text._ZN6String7replaceEcc
                0x00000000       0x1a C:/Users/jon_000/Git/ALFRED_TEST/Release/arduino.ar(WString.cpp.o)
 .text._ZNK6String7toFloatEv
                0x00000000       0x14 C:/Users/jon_000/Git/ALFRED_TEST/Release/arduino.ar(WString.cpp.o)
 .text._ZNK6String5toIntEv
                0x00000000        0xa C:/Users/jon_000/Git/ALFRED_TEST/Release/arduino.ar(WString.cpp.o)
 .text._ZN6String4trimEv
                0x00000000       0x4c C:/Users/jon_000/Git/ALFRED_TEST/Release/arduino.ar(WString.cpp.o)
 .text._ZN6String11toUpperCaseEv
                0x00000000       0x1a C:/Users/jon_000/Git/ALFRED_TEST/Release/arduino.ar(WString.cpp.o)
 .text._ZN6String11toLowerCaseEv
                0x00000000       0x1a C:/Users/jon_000/Git/ALFRED_TEST/Release/arduino.ar(WString.cpp.o)
 .text._ZNK6String16equalsIgnoreCaseERKS_
                0x00000000       0x38 C:/Users/jon_000/Git/ALFRED_TEST/Release/arduino.ar(WString.cpp.o)
 .text._ZN6String6removeEjj
                0x00000000       0x32 C:/Users/jon_000/Git/ALFRED_TEST/Release/arduino.ar(WString.cpp.o)
 .text._ZN6String6removeEj
                0x00000000        0xe C:/Users/jon_000/Git/ALFRED_TEST/Release/arduino.ar(WString.cpp.o)
 .text._ZNK6String8getBytesEPhjj
                0x00000000       0x30 C:/Users/jon_000/Git/ALFRED_TEST/Release/arduino.ar(WString.cpp.o)
 .text._ZNK6String11lastIndexOfERKS_j
                0x00000000       0x44 C:/Users/jon_000/Git/ALFRED_TEST/Release/arduino.ar(WString.cpp.o)
 .text._ZNK6String11lastIndexOfERKS_
                0x00000000        0xa C:/Users/jon_000/Git/ALFRED_TEST/Release/arduino.ar(WString.cpp.o)
 .text._ZNK6String7indexOfERKS_j
                0x00000000       0x22 C:/Users/jon_000/Git/ALFRED_TEST/Release/arduino.ar(WString.cpp.o)
 .text._ZNK6String7indexOfERKS_
                0x00000000        0x6 C:/Users/jon_000/Git/ALFRED_TEST/Release/arduino.ar(WString.cpp.o)
 .text._ZNK6String11lastIndexOfEcj
                0x00000000       0x32 C:/Users/jon_000/Git/ALFRED_TEST/Release/arduino.ar(WString.cpp.o)
 .text._ZNK6String11lastIndexOfEc
                0x00000000        0x8 C:/Users/jon_000/Git/ALFRED_TEST/Release/arduino.ar(WString.cpp.o)
 .text._ZNK6String7indexOfEcj
                0x00000000       0x20 C:/Users/jon_000/Git/ALFRED_TEST/Release/arduino.ar(WString.cpp.o)
 .text._ZNK6String7indexOfEc
                0x00000000        0x6 C:/Users/jon_000/Git/ALFRED_TEST/Release/arduino.ar(WString.cpp.o)
 .text._ZNK6String8endsWithERKS_
                0x00000000       0x28 C:/Users/jon_000/Git/ALFRED_TEST/Release/arduino.ar(WString.cpp.o)
 .text._ZNK6String6equalsEPKc
                0x00000000       0x2e C:/Users/jon_000/Git/ALFRED_TEST/Release/arduino.ar(WString.cpp.o)
 .text._ZNK6String9compareToERKS_
                0x00000000       0x2c C:/Users/jon_000/Git/ALFRED_TEST/Release/arduino.ar(WString.cpp.o)
 .text._ZNK6StringgeERKS_
                0x00000000        0xc C:/Users/jon_000/Git/ALFRED_TEST/Release/arduino.ar(WString.cpp.o)
 .text._ZNK6StringleERKS_
                0x00000000       0x10 C:/Users/jon_000/Git/ALFRED_TEST/Release/arduino.ar(WString.cpp.o)
 .text._ZNK6StringgtERKS_
                0x00000000       0x10 C:/Users/jon_000/Git/ALFRED_TEST/Release/arduino.ar(WString.cpp.o)
 .text._ZNK6StringltERKS_
                0x00000000        0xa C:/Users/jon_000/Git/ALFRED_TEST/Release/arduino.ar(WString.cpp.o)
 .text._ZNK6String6equalsERKS_
                0x00000000       0x1c C:/Users/jon_000/Git/ALFRED_TEST/Release/arduino.ar(WString.cpp.o)
 .text._ZNK6String10startsWithERKS_j
                0x00000000       0x2c C:/Users/jon_000/Git/ALFRED_TEST/Release/arduino.ar(WString.cpp.o)
 .text._ZNK6String10startsWithERKS_
                0x00000000       0x12 C:/Users/jon_000/Git/ALFRED_TEST/Release/arduino.ar(WString.cpp.o)
 .text._ZN6String12changeBufferEj
                0x00000000       0x1a C:/Users/jon_000/Git/ALFRED_TEST/Release/arduino.ar(WString.cpp.o)
 .text._ZN6String7replaceERKS_S1_
                0x00000000      0x112 C:/Users/jon_000/Git/ALFRED_TEST/Release/arduino.ar(WString.cpp.o)
 .text._ZN6String7reserveEj
                0x00000000       0x28 C:/Users/jon_000/Git/ALFRED_TEST/Release/arduino.ar(WString.cpp.o)
 .text._ZN6String6concatEPK19__FlashStringHelper
                0x00000000       0x38 C:/Users/jon_000/Git/ALFRED_TEST/Release/arduino.ar(WString.cpp.o)
 .text._ZN6String6concatEPKcj
                0x00000000       0x2c C:/Users/jon_000/Git/ALFRED_TEST/Release/arduino.ar(WString.cpp.o)
 .text._ZN6String6concatEd
                0x00000000       0x2a C:/Users/jon_000/Git/ALFRED_TEST/Release/arduino.ar(WString.cpp.o)
 .text._ZN6String6concatEf
                0x00000000       0x2c C:/Users/jon_000/Git/ALFRED_TEST/Release/arduino.ar(WString.cpp.o)
 .text._ZN6String6concatEm
                0x00000000       0x26 C:/Users/jon_000/Git/ALFRED_TEST/Release/arduino.ar(WString.cpp.o)
 .text._ZN6String6concatEl
                0x00000000       0x26 C:/Users/jon_000/Git/ALFRED_TEST/Release/arduino.ar(WString.cpp.o)
 .text._ZN6String6concatEj
                0x00000000       0x26 C:/Users/jon_000/Git/ALFRED_TEST/Release/arduino.ar(WString.cpp.o)
 .text._ZN6String6concatEi
                0x00000000       0x26 C:/Users/jon_000/Git/ALFRED_TEST/Release/arduino.ar(WString.cpp.o)
 .text._ZN6String6concatEh
                0x00000000       0x22 C:/Users/jon_000/Git/ALFRED_TEST/Release/arduino.ar(WString.cpp.o)
 .text._ZN6String6concatEc
                0x00000000       0x16 C:/Users/jon_000/Git/ALFRED_TEST/Release/arduino.ar(WString.cpp.o)
 .text._ZN6String6concatEPKc
                0x00000000       0x20 C:/Users/jon_000/Git/ALFRED_TEST/Release/arduino.ar(WString.cpp.o)
 .text._ZN6String6concatERKS_
                0x00000000        0xa C:/Users/jon_000/Git/ALFRED_TEST/Release/arduino.ar(WString.cpp.o)
 .text._ZN6String10invalidateEv
                0x00000000       0x16 C:/Users/jon_000/Git/ALFRED_TEST/Release/arduino.ar(WString.cpp.o)
 .text._ZplRK15StringSumHelperPK19__FlashStringHelper
                0x00000000       0x14 C:/Users/jon_000/Git/ALFRED_TEST/Release/arduino.ar(WString.cpp.o)
 .text._ZplRK15StringSumHelperd
                0x00000000       0x14 C:/Users/jon_000/Git/ALFRED_TEST/Release/arduino.ar(WString.cpp.o)
 .text._ZplRK15StringSumHelperf
                0x00000000       0x14 C:/Users/jon_000/Git/ALFRED_TEST/Release/arduino.ar(WString.cpp.o)
 .text._ZplRK15StringSumHelperm
                0x00000000       0x14 C:/Users/jon_000/Git/ALFRED_TEST/Release/arduino.ar(WString.cpp.o)
 .text._ZplRK15StringSumHelperl
                0x00000000       0x14 C:/Users/jon_000/Git/ALFRED_TEST/Release/arduino.ar(WString.cpp.o)
 .text._ZplRK15StringSumHelperj
                0x00000000       0x14 C:/Users/jon_000/Git/ALFRED_TEST/Release/arduino.ar(WString.cpp.o)
 .text._ZplRK15StringSumHelperi
                0x00000000       0x14 C:/Users/jon_000/Git/ALFRED_TEST/Release/arduino.ar(WString.cpp.o)
 .text._ZplRK15StringSumHelperh
                0x00000000       0x14 C:/Users/jon_000/Git/ALFRED_TEST/Release/arduino.ar(WString.cpp.o)
 .text._ZplRK15StringSumHelperc
                0x00000000       0x14 C:/Users/jon_000/Git/ALFRED_TEST/Release/arduino.ar(WString.cpp.o)
 .text._ZplRK15StringSumHelperPKc
                0x00000000       0x24 C:/Users/jon_000/Git/ALFRED_TEST/Release/arduino.ar(WString.cpp.o)
 .text._ZplRK15StringSumHelperRK6String
                0x00000000       0x1a C:/Users/jon_000/Git/ALFRED_TEST/Release/arduino.ar(WString.cpp.o)
 .text._ZN6String4copyEPK19__FlashStringHelperj
                0x00000000       0x26 C:/Users/jon_000/Git/ALFRED_TEST/Release/arduino.ar(WString.cpp.o)
 .text._ZN6StringaSEPK19__FlashStringHelper
                0x00000000       0x22 C:/Users/jon_000/Git/ALFRED_TEST/Release/arduino.ar(WString.cpp.o)
 .text._ZN6StringC1EPK19__FlashStringHelper
                0x00000000       0x14 C:/Users/jon_000/Git/ALFRED_TEST/Release/arduino.ar(WString.cpp.o)
 .text._ZN6StringC2EPK19__FlashStringHelper
                0x00000000       0x14 C:/Users/jon_000/Git/ALFRED_TEST/Release/arduino.ar(WString.cpp.o)
 .text._ZN6String4copyEPKcj
                0x00000000       0x26 C:/Users/jon_000/Git/ALFRED_TEST/Release/arduino.ar(WString.cpp.o)
 .text._ZN6StringC1EPKc
                0x00000000       0x24 C:/Users/jon_000/Git/ALFRED_TEST/Release/arduino.ar(WString.cpp.o)
 .text._ZN6StringC2EPKc
                0x00000000       0x24 C:/Users/jon_000/Git/ALFRED_TEST/Release/arduino.ar(WString.cpp.o)
 .text._ZN6StringaSEPKc
                0x00000000       0x22 C:/Users/jon_000/Git/ALFRED_TEST/Release/arduino.ar(WString.cpp.o)
 .text._ZN6StringC1Edh
                0x00000000       0x36 C:/Users/jon_000/Git/ALFRED_TEST/Release/arduino.ar(WString.cpp.o)
 .text._ZN6StringC2Edh
                0x00000000       0x36 C:/Users/jon_000/Git/ALFRED_TEST/Release/arduino.ar(WString.cpp.o)
 .text._ZN6StringC1Efh
                0x00000000       0x32 C:/Users/jon_000/Git/ALFRED_TEST/Release/arduino.ar(WString.cpp.o)
 .text._ZN6StringC2Efh
                0x00000000       0x32 C:/Users/jon_000/Git/ALFRED_TEST/Release/arduino.ar(WString.cpp.o)
 .text._ZN6StringC1Emh
                0x00000000       0x26 C:/Users/jon_000/Git/ALFRED_TEST/Release/arduino.ar(WString.cpp.o)
 .text._ZN6StringC2Emh
                0x00000000       0x26 C:/Users/jon_000/Git/ALFRED_TEST/Release/arduino.ar(WString.cpp.o)
 .text._ZN6StringC1Elh
                0x00000000       0x26 C:/Users/jon_000/Git/ALFRED_TEST/Release/arduino.ar(WString.cpp.o)
 .text._ZN6StringC2Elh
                0x00000000       0x26 C:/Users/jon_000/Git/ALFRED_TEST/Release/arduino.ar(WString.cpp.o)
 .text._ZN6StringC1Ejh
                0x00000000       0x26 C:/Users/jon_000/Git/ALFRED_TEST/Release/arduino.ar(WString.cpp.o)
 .text._ZN6StringC2Ejh
                0x00000000       0x26 C:/Users/jon_000/Git/ALFRED_TEST/Release/arduino.ar(WString.cpp.o)
 .text._ZN6StringC1Eih
                0x00000000       0x26 C:/Users/jon_000/Git/ALFRED_TEST/Release/arduino.ar(WString.cpp.o)
 .text._ZN6StringC2Eih
                0x00000000       0x26 C:/Users/jon_000/Git/ALFRED_TEST/Release/arduino.ar(WString.cpp.o)
 .text._ZN6StringC1Ehh
                0x00000000       0x26 C:/Users/jon_000/Git/ALFRED_TEST/Release/arduino.ar(WString.cpp.o)
 .text._ZN6StringC2Ehh
                0x00000000       0x26 C:/Users/jon_000/Git/ALFRED_TEST/Release/arduino.ar(WString.cpp.o)
 .text._ZN6StringC1Ec
                0x00000000       0x1e C:/Users/jon_000/Git/ALFRED_TEST/Release/arduino.ar(WString.cpp.o)
 .text._ZN6StringC2Ec
                0x00000000       0x1e C:/Users/jon_000/Git/ALFRED_TEST/Release/arduino.ar(WString.cpp.o)
 .text._ZNK6String9substringEjj
                0x00000000       0x4c C:/Users/jon_000/Git/ALFRED_TEST/Release/arduino.ar(WString.cpp.o)
 .text._ZN6StringaSERKS_
                0x00000000       0x1e C:/Users/jon_000/Git/ALFRED_TEST/Release/arduino.ar(WString.cpp.o)
 .text._ZN6StringC1ERKS_
                0x00000000       0x14 C:/Users/jon_000/Git/ALFRED_TEST/Release/arduino.ar(WString.cpp.o)
 .text._ZN6StringC2ERKS_
                0x00000000       0x14 C:/Users/jon_000/Git/ALFRED_TEST/Release/arduino.ar(WString.cpp.o)
 .text._ZN6StringD1Ev
                0x00000000        0xe C:/Users/jon_000/Git/ALFRED_TEST/Release/arduino.ar(WString.cpp.o)
 .text._ZN6StringD2Ev
                0x00000000        0xe C:/Users/jon_000/Git/ALFRED_TEST/Release/arduino.ar(WString.cpp.o)
 .rodata.str1.1
                0x00000000        0x1 C:/Users/jon_000/Git/ALFRED_TEST/Release/arduino.ar(WString.cpp.o)
 .bss._ZZN6StringixEjE19dummy_writable_char
                0x00000000        0x1 C:/Users/jon_000/Git/ALFRED_TEST/Release/arduino.ar(WString.cpp.o)
 .text          0x00000000        0x0 C:/Users/jon_000/Git/ALFRED_TEST/Release/arduino.ar(cxxabi-compat.cpp.o)
 .data          0x00000000        0x0 C:/Users/jon_000/Git/ALFRED_TEST/Release/arduino.ar(cxxabi-compat.cpp.o)
 .bss           0x00000000        0x0 C:/Users/jon_000/Git/ALFRED_TEST/Release/arduino.ar(cxxabi-compat.cpp.o)
 .text.__cxa_pure_virtual
                0x00000000        0x2 C:/Users/jon_000/Git/ALFRED_TEST/Release/arduino.ar(cxxabi-compat.cpp.o)
 .text          0x00000000        0x0 C:/Users/jon_000/Git/ALFRED_TEST/Release/arduino.ar(itoa.c.o)
 .data          0x00000000        0x0 C:/Users/jon_000/Git/ALFRED_TEST/Release/arduino.ar(itoa.c.o)
 .bss           0x00000000        0x0 C:/Users/jon_000/Git/ALFRED_TEST/Release/arduino.ar(itoa.c.o)
 .text.ltoa     0x00000000       0x88 C:/Users/jon_000/Git/ALFRED_TEST/Release/arduino.ar(itoa.c.o)
 .text.itoa     0x00000000        0x4 C:/Users/jon_000/Git/ALFRED_TEST/Release/arduino.ar(itoa.c.o)
 .text.ultoa    0x00000000       0x6a C:/Users/jon_000/Git/ALFRED_TEST/Release/arduino.ar(itoa.c.o)
 .text.utoa     0x00000000        0x4 C:/Users/jon_000/Git/ALFRED_TEST/Release/arduino.ar(itoa.c.o)
 .text          0x00000000        0x0 C:/Users/jon_000/Git/ALFRED_TEST/Release/arduino.ar(wiring.c.o)
 .data          0x00000000        0x0 C:/Users/jon_000/Git/ALFRED_TEST/Release/arduino.ar(wiring.c.o)
 .bss           0x00000000        0x0 C:/Users/jon_000/Git/ALFRED_TEST/Release/arduino.ar(wiring.c.o)
 .text.micros   0x00000000       0x7c C:/Users/jon_000/Git/ALFRED_TEST/Release/arduino.ar(wiring.c.o)
 .text          0x00000000        0x0 C:/Users/jon_000/Git/ALFRED_TEST/Release/arduino.ar(wiring_analog.c.o)
 .data          0x00000000        0x0 C:/Users/jon_000/Git/ALFRED_TEST/Release/arduino.ar(wiring_analog.c.o)
 .bss           0x00000000        0x0 C:/Users/jon_000/Git/ALFRED_TEST/Release/arduino.ar(wiring_analog.c.o)
 .text.analogReadResolution
                0x00000000        0xc C:/Users/jon_000/Git/ALFRED_TEST/Release/arduino.ar(wiring_analog.c.o)
 .text.analogWriteResolution
                0x00000000        0xc C:/Users/jon_000/Git/ALFRED_TEST/Release/arduino.ar(wiring_analog.c.o)
 .text.analogReference
                0x00000000        0xc C:/Users/jon_000/Git/ALFRED_TEST/Release/arduino.ar(wiring_analog.c.o)
 .text.TC_SetCMR_ChannelA
                0x00000000       0x12 C:/Users/jon_000/Git/ALFRED_TEST/Release/arduino.ar(wiring_analog.c.o)
 .text.TC_SetCMR_ChannelB
                0x00000000       0x12 C:/Users/jon_000/Git/ALFRED_TEST/Release/arduino.ar(wiring_analog.c.o)
 .text.analogWrite
                0x00000000      0x2bc C:/Users/jon_000/Git/ALFRED_TEST/Release/arduino.ar(wiring_analog.c.o)
 .text.analogRead
                0x00000000       0x74 C:/Users/jon_000/Git/ALFRED_TEST/Release/arduino.ar(wiring_analog.c.o)
 .rodata.channelToAB.6885
                0x00000000       0x48 C:/Users/jon_000/Git/ALFRED_TEST/Release/arduino.ar(wiring_analog.c.o)
 .bss.PWMEnabled
                0x00000000        0x1 C:/Users/jon_000/Git/ALFRED_TEST/Release/arduino.ar(wiring_analog.c.o)
 .data._writeResolution
                0x00000000        0x4 C:/Users/jon_000/Git/ALFRED_TEST/Release/arduino.ar(wiring_analog.c.o)
 .bss.TCChanEnabled
                0x00000000        0xc C:/Users/jon_000/Git/ALFRED_TEST/Release/arduino.ar(wiring_analog.c.o)
 .data.latestSelectedChannel.6807
                0x00000000        0x4 C:/Users/jon_000/Git/ALFRED_TEST/Release/arduino.ar(wiring_analog.c.o)
 .rodata.channelToChNo.6884
                0x00000000       0x48 C:/Users/jon_000/Git/ALFRED_TEST/Release/arduino.ar(wiring_analog.c.o)
 .bss.analog_reference
                0x00000000        0x1 C:/Users/jon_000/Git/ALFRED_TEST/Release/arduino.ar(wiring_analog.c.o)
 .rodata.channelToId.6887
                0x00000000       0x48 C:/Users/jon_000/Git/ALFRED_TEST/Release/arduino.ar(wiring_analog.c.o)
 .rodata.channelToTC.6886
                0x00000000       0x48 C:/Users/jon_000/Git/ALFRED_TEST/Release/arduino.ar(wiring_analog.c.o)
 .data._readResolution
                0x00000000        0x4 C:/Users/jon_000/Git/ALFRED_TEST/Release/arduino.ar(wiring_analog.c.o)
 .text          0x00000000        0x0 C:/Users/jon_000/Git/ALFRED_TEST/Release/arduino.ar(wiring_digital.c.o)
 .data          0x00000000        0x0 C:/Users/jon_000/Git/ALFRED_TEST/Release/arduino.ar(wiring_digital.c.o)
 .bss           0x00000000        0x0 C:/Users/jon_000/Git/ALFRED_TEST/Release/arduino.ar(wiring_digital.c.o)
 .text.digitalRead
                0x00000000       0x28 C:/Users/jon_000/Git/ALFRED_TEST/Release/arduino.ar(wiring_digital.c.o)
 .text          0x00000000        0x0 C:/Users/jon_000/Git/ALFRED_TEST/Release/arduino.ar(dtostrf.c.o)
 .data          0x00000000        0x0 C:/Users/jon_000/Git/ALFRED_TEST/Release/arduino.ar(dtostrf.c.o)
 .bss           0x00000000        0x0 C:/Users/jon_000/Git/ALFRED_TEST/Release/arduino.ar(dtostrf.c.o)
 .text.dtostrf  0x00000000       0x2c C:/Users/jon_000/Git/ALFRED_TEST/Release/arduino.ar(dtostrf.c.o)
 .rodata.str1.1
                0x00000000        0x9 C:/Users/jon_000/Git/ALFRED_TEST/Release/arduino.ar(dtostrf.c.o)
 .text          0x00000000        0x0 C:/Users/jon_000/Git/ALFRED_TEST/Release/arduino.ar(hooks.c.o)
 .data          0x00000000        0x0 C:/Users/jon_000/Git/ALFRED_TEST/Release/arduino.ar(hooks.c.o)
 .bss           0x00000000        0x0 C:/Users/jon_000/Git/ALFRED_TEST/Release/arduino.ar(hooks.c.o)
 .text          0x00000000        0x0 C:/Arduino/hardware/arduino/sam/variants/arduino_due_x/libsam_sam3x8e_gcc_rel.a(pio.o)
 .data          0x00000000        0x0 C:/Arduino/hardware/arduino/sam/variants/arduino_due_x/libsam_sam3x8e_gcc_rel.a(pio.o)
 .bss           0x00000000        0x0 C:/Arduino/hardware/arduino/sam/variants/arduino_due_x/libsam_sam3x8e_gcc_rel.a(pio.o)
 .text.PIO_SetDebounceFilter
                0x00000000       0x1a C:/Arduino/hardware/arduino/sam/variants/arduino_due_x/libsam_sam3x8e_gcc_rel.a(pio.o)
 .text.PIO_Set  0x00000000        0x4 C:/Arduino/hardware/arduino/sam/variants/arduino_due_x/libsam_sam3x8e_gcc_rel.a(pio.o)
 .text.PIO_Get  0x00000000       0x16 C:/Arduino/hardware/arduino/sam/variants/arduino_due_x/libsam_sam3x8e_gcc_rel.a(pio.o)
 .text.PIO_Clear
                0x00000000        0x4 C:/Arduino/hardware/arduino/sam/variants/arduino_due_x/libsam_sam3x8e_gcc_rel.a(pio.o)
 .text          0x00000000        0x0 C:/Arduino/hardware/arduino/sam/variants/arduino_due_x/libsam_sam3x8e_gcc_rel.a(pmc.o)
 .data          0x00000000        0x0 C:/Arduino/hardware/arduino/sam/variants/arduino_due_x/libsam_sam3x8e_gcc_rel.a(pmc.o)
 .bss           0x00000000        0x0 C:/Arduino/hardware/arduino/sam/variants/arduino_due_x/libsam_sam3x8e_gcc_rel.a(pmc.o)
 .text.pmc_mck_set_prescaler
                0x00000000       0x20 C:/Arduino/hardware/arduino/sam/variants/arduino_due_x/libsam_sam3x8e_gcc_rel.a(pmc.o)
 .text.pmc_mck_set_source
                0x00000000       0x20 C:/Arduino/hardware/arduino/sam/variants/arduino_due_x/libsam_sam3x8e_gcc_rel.a(pmc.o)
 .text.pmc_switch_mck_to_sclk
                0x00000000       0x4c C:/Arduino/hardware/arduino/sam/variants/arduino_due_x/libsam_sam3x8e_gcc_rel.a(pmc.o)
 .text.pmc_switch_mck_to_mainck
                0x00000000       0x50 C:/Arduino/hardware/arduino/sam/variants/arduino_due_x/libsam_sam3x8e_gcc_rel.a(pmc.o)
 .text.pmc_switch_mck_to_pllack
                0x00000000       0x54 C:/Arduino/hardware/arduino/sam/variants/arduino_due_x/libsam_sam3x8e_gcc_rel.a(pmc.o)
 .text.pmc_switch_mck_to_upllck
                0x00000000       0x50 C:/Arduino/hardware/arduino/sam/variants/arduino_due_x/libsam_sam3x8e_gcc_rel.a(pmc.o)
 .text.pmc_switch_sclk_to_32kxtal
                0x00000000       0x28 C:/Arduino/hardware/arduino/sam/variants/arduino_due_x/libsam_sam3x8e_gcc_rel.a(pmc.o)
 .text.pmc_osc_is_ready_32kxtal
                0x00000000       0x1c C:/Arduino/hardware/arduino/sam/variants/arduino_due_x/libsam_sam3x8e_gcc_rel.a(pmc.o)
 .text.pmc_switch_mainck_to_fastrc
                0x00000000       0x74 C:/Arduino/hardware/arduino/sam/variants/arduino_due_x/libsam_sam3x8e_gcc_rel.a(pmc.o)
 .text.pmc_osc_enable_fastrc
                0x00000000       0x20 C:/Arduino/hardware/arduino/sam/variants/arduino_due_x/libsam_sam3x8e_gcc_rel.a(pmc.o)
 .text.pmc_osc_disable_fastrc
                0x00000000       0x18 C:/Arduino/hardware/arduino/sam/variants/arduino_due_x/libsam_sam3x8e_gcc_rel.a(pmc.o)
 .text.pmc_switch_mainck_to_xtal
                0x00000000       0x50 C:/Arduino/hardware/arduino/sam/variants/arduino_due_x/libsam_sam3x8e_gcc_rel.a(pmc.o)
 .text.pmc_osc_disable_xtal
                0x00000000       0x28 C:/Arduino/hardware/arduino/sam/variants/arduino_due_x/libsam_sam3x8e_gcc_rel.a(pmc.o)
 .text.pmc_osc_is_ready_mainck
                0x00000000       0x10 C:/Arduino/hardware/arduino/sam/variants/arduino_due_x/libsam_sam3x8e_gcc_rel.a(pmc.o)
 .text.pmc_disable_pllack
                0x00000000       0x10 C:/Arduino/hardware/arduino/sam/variants/arduino_due_x/libsam_sam3x8e_gcc_rel.a(pmc.o)
 .text.pmc_enable_pllack
                0x00000000       0x44 C:/Arduino/hardware/arduino/sam/variants/arduino_due_x/libsam_sam3x8e_gcc_rel.a(pmc.o)
 .text.pmc_is_locked_pllack
                0x00000000       0x10 C:/Arduino/hardware/arduino/sam/variants/arduino_due_x/libsam_sam3x8e_gcc_rel.a(pmc.o)
 .text.pmc_disable_upll_clock
                0x00000000       0x10 C:/Arduino/hardware/arduino/sam/variants/arduino_due_x/libsam_sam3x8e_gcc_rel.a(pmc.o)
 .text.pmc_is_locked_upll
                0x00000000       0x10 C:/Arduino/hardware/arduino/sam/variants/arduino_due_x/libsam_sam3x8e_gcc_rel.a(pmc.o)
 .text.pmc_enable_all_periph_clk
                0x00000000       0x30 C:/Arduino/hardware/arduino/sam/variants/arduino_due_x/libsam_sam3x8e_gcc_rel.a(pmc.o)
 .text.pmc_disable_all_periph_clk
                0x00000000       0x2c C:/Arduino/hardware/arduino/sam/variants/arduino_due_x/libsam_sam3x8e_gcc_rel.a(pmc.o)
 .text.pmc_is_periph_clk_enabled
                0x00000000       0x34 C:/Arduino/hardware/arduino/sam/variants/arduino_due_x/libsam_sam3x8e_gcc_rel.a(pmc.o)
 .text.pmc_pck_set_prescaler
                0x00000000       0x34 C:/Arduino/hardware/arduino/sam/variants/arduino_due_x/libsam_sam3x8e_gcc_rel.a(pmc.o)
 .text.pmc_pck_set_source
                0x00000000       0x34 C:/Arduino/hardware/arduino/sam/variants/arduino_due_x/libsam_sam3x8e_gcc_rel.a(pmc.o)
 .text.pmc_switch_pck_to_sclk
                0x00000000       0x30 C:/Arduino/hardware/arduino/sam/variants/arduino_due_x/libsam_sam3x8e_gcc_rel.a(pmc.o)
 .text.pmc_switch_pck_to_mainck
                0x00000000       0x34 C:/Arduino/hardware/arduino/sam/variants/arduino_due_x/libsam_sam3x8e_gcc_rel.a(pmc.o)
 .text.pmc_switch_pck_to_pllack
                0x00000000       0x34 C:/Arduino/hardware/arduino/sam/variants/arduino_due_x/libsam_sam3x8e_gcc_rel.a(pmc.o)
 .text.pmc_switch_pck_to_upllck
                0x00000000       0x34 C:/Arduino/hardware/arduino/sam/variants/arduino_due_x/libsam_sam3x8e_gcc_rel.a(pmc.o)
 .text.pmc_enable_pck
                0x00000000       0x10 C:/Arduino/hardware/arduino/sam/variants/arduino_due_x/libsam_sam3x8e_gcc_rel.a(pmc.o)
 .text.pmc_disable_pck
                0x00000000       0x10 C:/Arduino/hardware/arduino/sam/variants/arduino_due_x/libsam_sam3x8e_gcc_rel.a(pmc.o)
 .text.pmc_enable_all_pck
                0x00000000       0x10 C:/Arduino/hardware/arduino/sam/variants/arduino_due_x/libsam_sam3x8e_gcc_rel.a(pmc.o)
 .text.pmc_disable_all_pck
                0x00000000       0x10 C:/Arduino/hardware/arduino/sam/variants/arduino_due_x/libsam_sam3x8e_gcc_rel.a(pmc.o)
 .text.pmc_is_pck_enabled
                0x00000000       0x1c C:/Arduino/hardware/arduino/sam/variants/arduino_due_x/libsam_sam3x8e_gcc_rel.a(pmc.o)
 .text.pmc_switch_udpck_to_pllack
                0x00000000       0x10 C:/Arduino/hardware/arduino/sam/variants/arduino_due_x/libsam_sam3x8e_gcc_rel.a(pmc.o)
 .text.pmc_disable_udpck
                0x00000000        0xc C:/Arduino/hardware/arduino/sam/variants/arduino_due_x/libsam_sam3x8e_gcc_rel.a(pmc.o)
 .text.pmc_enable_interrupt
                0x00000000        0xc C:/Arduino/hardware/arduino/sam/variants/arduino_due_x/libsam_sam3x8e_gcc_rel.a(pmc.o)
 .text.pmc_disable_interrupt
                0x00000000        0xc C:/Arduino/hardware/arduino/sam/variants/arduino_due_x/libsam_sam3x8e_gcc_rel.a(pmc.o)
 .text.pmc_get_interrupt_mask
                0x00000000        0xc C:/Arduino/hardware/arduino/sam/variants/arduino_due_x/libsam_sam3x8e_gcc_rel.a(pmc.o)
 .text.pmc_get_status
                0x00000000        0xc C:/Arduino/hardware/arduino/sam/variants/arduino_due_x/libsam_sam3x8e_gcc_rel.a(pmc.o)
 .text.pmc_set_fast_startup_input
                0x00000000       0x14 C:/Arduino/hardware/arduino/sam/variants/arduino_due_x/libsam_sam3x8e_gcc_rel.a(pmc.o)
 .text.pmc_clr_fast_startup_input
                0x00000000       0x14 C:/Arduino/hardware/arduino/sam/variants/arduino_due_x/libsam_sam3x8e_gcc_rel.a(pmc.o)
 .text.pmc_enable_sleepmode
                0x00000000       0x28 C:/Arduino/hardware/arduino/sam/variants/arduino_due_x/libsam_sam3x8e_gcc_rel.a(pmc.o)
 .text.pmc_enable_waitmode
                0x00000000       0x38 C:/Arduino/hardware/arduino/sam/variants/arduino_due_x/libsam_sam3x8e_gcc_rel.a(pmc.o)
 .text.pmc_enable_backupmode
                0x00000000       0x14 C:/Arduino/hardware/arduino/sam/variants/arduino_due_x/libsam_sam3x8e_gcc_rel.a(pmc.o)
 .text.pmc_get_writeprotect_status
                0x00000000       0x10 C:/Arduino/hardware/arduino/sam/variants/arduino_due_x/libsam_sam3x8e_gcc_rel.a(pmc.o)
 .text          0x00000000        0x0 C:/Arduino/hardware/arduino/sam/variants/arduino_due_x/libsam_sam3x8e_gcc_rel.a(pwmc.o)
 .data          0x00000000        0x0 C:/Arduino/hardware/arduino/sam/variants/arduino_due_x/libsam_sam3x8e_gcc_rel.a(pwmc.o)
 .bss           0x00000000        0x0 C:/Arduino/hardware/arduino/sam/variants/arduino_due_x/libsam_sam3x8e_gcc_rel.a(pwmc.o)
 .text.FindClockConfiguration
                0x00000000       0x7c C:/Arduino/hardware/arduino/sam/variants/arduino_due_x/libsam_sam3x8e_gcc_rel.a(pwmc.o)
 .text.PWMC_ConfigureChannel
                0x00000000       0x60 C:/Arduino/hardware/arduino/sam/variants/arduino_due_x/libsam_sam3x8e_gcc_rel.a(pwmc.o)
 .text.PWMC_ConfigureChannelExt
                0x00000000       0xd4 C:/Arduino/hardware/arduino/sam/variants/arduino_due_x/libsam_sam3x8e_gcc_rel.a(pwmc.o)
 .text.PWMC_ConfigureClocks
                0x00000000       0x54 C:/Arduino/hardware/arduino/sam/variants/arduino_due_x/libsam_sam3x8e_gcc_rel.a(pwmc.o)
 .text.PWMC_SetPeriod
                0x00000000       0x1a C:/Arduino/hardware/arduino/sam/variants/arduino_due_x/libsam_sam3x8e_gcc_rel.a(pwmc.o)
 .text.PWMC_SetDutyCycle
                0x00000000       0x48 C:/Arduino/hardware/arduino/sam/variants/arduino_due_x/libsam_sam3x8e_gcc_rel.a(pwmc.o)
 .text.PWMC_SetDeadTime
                0x00000000       0x60 C:/Arduino/hardware/arduino/sam/variants/arduino_due_x/libsam_sam3x8e_gcc_rel.a(pwmc.o)
 .text.PWMC_ConfigureSyncChannel
                0x00000000        0xc C:/Arduino/hardware/arduino/sam/variants/arduino_due_x/libsam_sam3x8e_gcc_rel.a(pwmc.o)
 .text.PWMC_SetSyncChannelUpdatePeriod
                0x00000000        0xe C:/Arduino/hardware/arduino/sam/variants/arduino_due_x/libsam_sam3x8e_gcc_rel.a(pwmc.o)
 .text.PWMC_SetSyncChannelUpdateUnlock
                0x00000000        0x6 C:/Arduino/hardware/arduino/sam/variants/arduino_due_x/libsam_sam3x8e_gcc_rel.a(pwmc.o)
 .text.PWMC_EnableChannel
                0x00000000        0x8 C:/Arduino/hardware/arduino/sam/variants/arduino_due_x/libsam_sam3x8e_gcc_rel.a(pwmc.o)
 .text.PWMC_DisableChannel
                0x00000000        0x8 C:/Arduino/hardware/arduino/sam/variants/arduino_due_x/libsam_sam3x8e_gcc_rel.a(pwmc.o)
 .text.PWMC_EnableChannelIt
                0x00000000        0x8 C:/Arduino/hardware/arduino/sam/variants/arduino_due_x/libsam_sam3x8e_gcc_rel.a(pwmc.o)
 .text.PWMC_DisableChannelIt
                0x00000000        0x8 C:/Arduino/hardware/arduino/sam/variants/arduino_due_x/libsam_sam3x8e_gcc_rel.a(pwmc.o)
 .text.PWMC_EnableIt
                0x00000000        0x6 C:/Arduino/hardware/arduino/sam/variants/arduino_due_x/libsam_sam3x8e_gcc_rel.a(pwmc.o)
 .text.PWMC_DisableIt
                0x00000000        0x6 C:/Arduino/hardware/arduino/sam/variants/arduino_due_x/libsam_sam3x8e_gcc_rel.a(pwmc.o)
 .text.PWMC_WriteBuffer
                0x00000000       0x2e C:/Arduino/hardware/arduino/sam/variants/arduino_due_x/libsam_sam3x8e_gcc_rel.a(pwmc.o)
 .text.PWMC_SetOverrideValue
                0x00000000        0x4 C:/Arduino/hardware/arduino/sam/variants/arduino_due_x/libsam_sam3x8e_gcc_rel.a(pwmc.o)
 .text.PWMC_EnableOverrideOutput
                0x00000000        0xa C:/Arduino/hardware/arduino/sam/variants/arduino_due_x/libsam_sam3x8e_gcc_rel.a(pwmc.o)
 .text.PWMC_DisableOverrideOutput
                0x00000000        0xa C:/Arduino/hardware/arduino/sam/variants/arduino_due_x/libsam_sam3x8e_gcc_rel.a(pwmc.o)
 .text.PWMC_SetFaultMode
                0x00000000        0x4 C:/Arduino/hardware/arduino/sam/variants/arduino_due_x/libsam_sam3x8e_gcc_rel.a(pwmc.o)
 .text.PWMC_FaultClear
                0x00000000        0x4 C:/Arduino/hardware/arduino/sam/variants/arduino_due_x/libsam_sam3x8e_gcc_rel.a(pwmc.o)
 .text.PWMC_SetFaultProtectionValue
                0x00000000        0x4 C:/Arduino/hardware/arduino/sam/variants/arduino_due_x/libsam_sam3x8e_gcc_rel.a(pwmc.o)
 .text.PWMC_EnableFaultProtection
                0x00000000       0x36 C:/Arduino/hardware/arduino/sam/variants/arduino_due_x/libsam_sam3x8e_gcc_rel.a(pwmc.o)
 .text.PWMC_ConfigureComparisonUnit
                0x00000000       0x50 C:/Arduino/hardware/arduino/sam/variants/arduino_due_x/libsam_sam3x8e_gcc_rel.a(pwmc.o)
 .text.PWMC_ConfigureEventLineMode
                0x00000000       0x30 C:/Arduino/hardware/arduino/sam/variants/arduino_due_x/libsam_sam3x8e_gcc_rel.a(pwmc.o)
 .rodata.__func__.6770
                0x00000000       0x1d C:/Arduino/hardware/arduino/sam/variants/arduino_due_x/libsam_sam3x8e_gcc_rel.a(pwmc.o)
 .rodata.__func__.6657
                0x00000000       0x19 C:/Arduino/hardware/arduino/sam/variants/arduino_due_x/libsam_sam3x8e_gcc_rel.a(pwmc.o)
 .rodata.__func__.6776
                0x00000000       0x1c C:/Arduino/hardware/arduino/sam/variants/arduino_due_x/libsam_sam3x8e_gcc_rel.a(pwmc.o)
 .rodata.__func__.6668
                0x00000000       0x15 C:/Arduino/hardware/arduino/sam/variants/arduino_due_x/libsam_sam3x8e_gcc_rel.a(pwmc.o)
 .rodata.str1.1
                0x00000000      0x1cc C:/Arduino/hardware/arduino/sam/variants/arduino_due_x/libsam_sam3x8e_gcc_rel.a(pwmc.o)
 .rodata.__func__.6679
                0x00000000       0x12 C:/Arduino/hardware/arduino/sam/variants/arduino_due_x/libsam_sam3x8e_gcc_rel.a(pwmc.o)
 .rodata.__func__.6686
                0x00000000       0x11 C:/Arduino/hardware/arduino/sam/variants/arduino_due_x/libsam_sam3x8e_gcc_rel.a(pwmc.o)
 .rodata.__func__.6631
                0x00000000       0x17 C:/Arduino/hardware/arduino/sam/variants/arduino_due_x/libsam_sam3x8e_gcc_rel.a(pwmc.o)
 .rodata.C.9.8049
                0x00000000       0x2c C:/Arduino/hardware/arduino/sam/variants/arduino_due_x/libsam_sam3x8e_gcc_rel.a(pwmc.o)
 .rodata.__func__.6642
                0x00000000       0x16 C:/Arduino/hardware/arduino/sam/variants/arduino_due_x/libsam_sam3x8e_gcc_rel.a(pwmc.o)
 .text          0x00000000        0x0 C:/Arduino/hardware/arduino/sam/variants/arduino_due_x/libsam_sam3x8e_gcc_rel.a(tc.o)
 .data          0x00000000        0x0 C:/Arduino/hardware/arduino/sam/variants/arduino_due_x/libsam_sam3x8e_gcc_rel.a(tc.o)
 .bss           0x00000000        0x0 C:/Arduino/hardware/arduino/sam/variants/arduino_due_x/libsam_sam3x8e_gcc_rel.a(tc.o)
 .text.TC_FindMckDivisor
                0x00000000       0x6e C:/Arduino/hardware/arduino/sam/variants/arduino_due_x/libsam_sam3x8e_gcc_rel.a(tc.o)
 .text.TC_ReadCV
                0x00000000        0x8 C:/Arduino/hardware/arduino/sam/variants/arduino_due_x/libsam_sam3x8e_gcc_rel.a(tc.o)
 .text.TC_SetRA
                0x00000000        0x8 C:/Arduino/hardware/arduino/sam/variants/arduino_due_x/libsam_sam3x8e_gcc_rel.a(tc.o)
 .text.TC_SetRB
                0x00000000        0x8 C:/Arduino/hardware/arduino/sam/variants/arduino_due_x/libsam_sam3x8e_gcc_rel.a(tc.o)
 .text          0x00000000        0x0 C:/Arduino/hardware/arduino/sam/variants/arduino_due_x/libsam_sam3x8e_gcc_rel.a(timetick.o)
 .data          0x00000000        0x0 C:/Arduino/hardware/arduino/sam/variants/arduino_due_x/libsam_sam3x8e_gcc_rel.a(timetick.o)
 .bss           0x00000000        0x0 C:/Arduino/hardware/arduino/sam/variants/arduino_due_x/libsam_sam3x8e_gcc_rel.a(timetick.o)
 .text.TimeTick_Configure
                0x00000000       0x38 C:/Arduino/hardware/arduino/sam/variants/arduino_due_x/libsam_sam3x8e_gcc_rel.a(timetick.o)
 .text.Wait     0x00000000       0x1c C:/Arduino/hardware/arduino/sam/variants/arduino_due_x/libsam_sam3x8e_gcc_rel.a(timetick.o)
 .text.Sleep    0x00000000       0x20 C:/Arduino/hardware/arduino/sam/variants/arduino_due_x/libsam_sam3x8e_gcc_rel.a(timetick.o)
 .text          0x00000000        0x0 C:/Arduino/hardware/arduino/sam/variants/arduino_due_x/libsam_sam3x8e_gcc_rel.a(wdt.o)
 .data          0x00000000        0x0 C:/Arduino/hardware/arduino/sam/variants/arduino_due_x/libsam_sam3x8e_gcc_rel.a(wdt.o)
 .bss           0x00000000        0x0 C:/Arduino/hardware/arduino/sam/variants/arduino_due_x/libsam_sam3x8e_gcc_rel.a(wdt.o)
 .text.WDT_Enable
                0x00000000        0x4 C:/Arduino/hardware/arduino/sam/variants/arduino_due_x/libsam_sam3x8e_gcc_rel.a(wdt.o)
 .text.WDT_Restart
                0x00000000        0xc C:/Arduino/hardware/arduino/sam/variants/arduino_due_x/libsam_sam3x8e_gcc_rel.a(wdt.o)
 .text.WDT_GetStatus
                0x00000000        0x8 C:/Arduino/hardware/arduino/sam/variants/arduino_due_x/libsam_sam3x8e_gcc_rel.a(wdt.o)
 .text.WDT_GetPeriod
                0x00000000       0x1a C:/Arduino/hardware/arduino/sam/variants/arduino_due_x/libsam_sam3x8e_gcc_rel.a(wdt.o)
 .text          0x00000000        0x0 C:/Arduino/hardware/arduino/sam/variants/arduino_due_x/libsam_sam3x8e_gcc_rel.a(system_sam3xa.o)
 .data          0x00000000        0x0 C:/Arduino/hardware/arduino/sam/variants/arduino_due_x/libsam_sam3x8e_gcc_rel.a(system_sam3xa.o)
 .bss           0x00000000        0x0 C:/Arduino/hardware/arduino/sam/variants/arduino_due_x/libsam_sam3x8e_gcc_rel.a(system_sam3xa.o)
 .text.SystemCoreClockUpdate
                0x00000000       0xe4 C:/Arduino/hardware/arduino/sam/variants/arduino_due_x/libsam_sam3x8e_gcc_rel.a(system_sam3xa.o)
 .text.system_init_flash
                0x00000000       0x58 C:/Arduino/hardware/arduino/sam/variants/arduino_due_x/libsam_sam3x8e_gcc_rel.a(system_sam3xa.o)
 .text          0x00000000        0x0 C:/Arduino/hardware/arduino/sam/variants/arduino_due_x/libsam_sam3x8e_gcc_rel.a(startup_sam3xa.o)
 .data          0x00000000        0x0 C:/Arduino/hardware/arduino/sam/variants/arduino_due_x/libsam_sam3x8e_gcc_rel.a(startup_sam3xa.o)
 .bss           0x00000000        0x0 C:/Arduino/hardware/arduino/sam/variants/arduino_due_x/libsam_sam3x8e_gcc_rel.a(startup_sam3xa.o)
 .text          0x00000000        0x0 C:/Arduino/hardware/arduino/sam/variants/arduino_due_x/libsam_sam3x8e_gcc_rel.a(adc.o)
 .data          0x00000000        0x0 C:/Arduino/hardware/arduino/sam/variants/arduino_due_x/libsam_sam3x8e_gcc_rel.a(adc.o)
 .bss           0x00000000        0x0 C:/Arduino/hardware/arduino/sam/variants/arduino_due_x/libsam_sam3x8e_gcc_rel.a(adc.o)
 .text.adc_set_resolution
                0x00000000       0x10 C:/Arduino/hardware/arduino/sam/variants/arduino_due_x/libsam_sam3x8e_gcc_rel.a(adc.o)
 .text.adc_configure_power_save
                0x00000000       0x18 C:/Arduino/hardware/arduino/sam/variants/arduino_due_x/libsam_sam3x8e_gcc_rel.a(adc.o)
 .text.adc_configure_sequence
                0x00000000       0x58 C:/Arduino/hardware/arduino/sam/variants/arduino_due_x/libsam_sam3x8e_gcc_rel.a(adc.o)
 .text.adc_enable_anch
                0x00000000        0xa C:/Arduino/hardware/arduino/sam/variants/arduino_due_x/libsam_sam3x8e_gcc_rel.a(adc.o)
 .text.adc_disable_anch
                0x00000000        0xa C:/Arduino/hardware/arduino/sam/variants/arduino_due_x/libsam_sam3x8e_gcc_rel.a(adc.o)
 .text.adc_start
                0x00000000        0x6 C:/Arduino/hardware/arduino/sam/variants/arduino_due_x/libsam_sam3x8e_gcc_rel.a(adc.o)
 .text.adc_stop
                0x00000000        0x6 C:/Arduino/hardware/arduino/sam/variants/arduino_due_x/libsam_sam3x8e_gcc_rel.a(adc.o)
 .text.adc_enable_channel
                0x00000000        0x8 C:/Arduino/hardware/arduino/sam/variants/arduino_due_x/libsam_sam3x8e_gcc_rel.a(adc.o)
 .text.adc_enable_all_channel
                0x00000000        0x8 C:/Arduino/hardware/arduino/sam/variants/arduino_due_x/libsam_sam3x8e_gcc_rel.a(adc.o)
 .text.adc_disable_channel
                0x00000000        0x8 C:/Arduino/hardware/arduino/sam/variants/arduino_due_x/libsam_sam3x8e_gcc_rel.a(adc.o)
 .text.adc_get_channel_status
                0x00000000        0xa C:/Arduino/hardware/arduino/sam/variants/arduino_due_x/libsam_sam3x8e_gcc_rel.a(adc.o)
 .text.adc_get_channel_value
                0x00000000       0x10 C:/Arduino/hardware/arduino/sam/variants/arduino_due_x/libsam_sam3x8e_gcc_rel.a(adc.o)
 .text.adc_get_latest_value
                0x00000000        0x4 C:/Arduino/hardware/arduino/sam/variants/arduino_due_x/libsam_sam3x8e_gcc_rel.a(adc.o)
 .text.adc_enable_tag
                0x00000000        0xa C:/Arduino/hardware/arduino/sam/variants/arduino_due_x/libsam_sam3x8e_gcc_rel.a(adc.o)
 .text.adc_disable_tag
                0x00000000        0xa C:/Arduino/hardware/arduino/sam/variants/arduino_due_x/libsam_sam3x8e_gcc_rel.a(adc.o)
 .text.adc_get_tag
                0x00000000        0xa C:/Arduino/hardware/arduino/sam/variants/arduino_due_x/libsam_sam3x8e_gcc_rel.a(adc.o)
 .text.adc_start_sequencer
                0x00000000        0xa C:/Arduino/hardware/arduino/sam/variants/arduino_due_x/libsam_sam3x8e_gcc_rel.a(adc.o)
 .text.adc_stop_sequencer
                0x00000000        0xa C:/Arduino/hardware/arduino/sam/variants/arduino_due_x/libsam_sam3x8e_gcc_rel.a(adc.o)
 .text.adc_set_comparison_mode
                0x00000000       0x16 C:/Arduino/hardware/arduino/sam/variants/arduino_due_x/libsam_sam3x8e_gcc_rel.a(adc.o)
 .text.adc_get_comparison_mode
                0x00000000        0x8 C:/Arduino/hardware/arduino/sam/variants/arduino_due_x/libsam_sam3x8e_gcc_rel.a(adc.o)
 .text.adc_set_comparison_window
                0x00000000       0x14 C:/Arduino/hardware/arduino/sam/variants/arduino_due_x/libsam_sam3x8e_gcc_rel.a(adc.o)
 .text.adc_set_comparison_channel
                0x00000000       0x28 C:/Arduino/hardware/arduino/sam/variants/arduino_due_x/libsam_sam3x8e_gcc_rel.a(adc.o)
 .text.adc_enable_channel_differential_input
                0x00000000       0x12 C:/Arduino/hardware/arduino/sam/variants/arduino_due_x/libsam_sam3x8e_gcc_rel.a(adc.o)
 .text.adc_disable_channel_differential_input
                0x00000000       0x1c C:/Arduino/hardware/arduino/sam/variants/arduino_due_x/libsam_sam3x8e_gcc_rel.a(adc.o)
 .text.adc_enable_channel_input_offset
                0x00000000        0xe C:/Arduino/hardware/arduino/sam/variants/arduino_due_x/libsam_sam3x8e_gcc_rel.a(adc.o)
 .text.adc_disable_channel_input_offset
                0x00000000       0x1c C:/Arduino/hardware/arduino/sam/variants/arduino_due_x/libsam_sam3x8e_gcc_rel.a(adc.o)
 .text.adc_set_channel_input_gain
                0x00000000       0x14 C:/Arduino/hardware/arduino/sam/variants/arduino_due_x/libsam_sam3x8e_gcc_rel.a(adc.o)
 .text.adc_get_actual_adc_clock
                0x00000000       0x10 C:/Arduino/hardware/arduino/sam/variants/arduino_due_x/libsam_sam3x8e_gcc_rel.a(adc.o)
 .text.adc_enable_interrupt
                0x00000000        0x4 C:/Arduino/hardware/arduino/sam/variants/arduino_due_x/libsam_sam3x8e_gcc_rel.a(adc.o)
 .text.adc_get_status
                0x00000000        0x4 C:/Arduino/hardware/arduino/sam/variants/arduino_due_x/libsam_sam3x8e_gcc_rel.a(adc.o)
 .text.adc_get_overrun_status
                0x00000000        0x4 C:/Arduino/hardware/arduino/sam/variants/arduino_due_x/libsam_sam3x8e_gcc_rel.a(adc.o)
 .text.adc_get_interrupt_mask
                0x00000000        0x4 C:/Arduino/hardware/arduino/sam/variants/arduino_due_x/libsam_sam3x8e_gcc_rel.a(adc.o)
 .text.adc_set_bias_current
                0x00000000       0x14 C:/Arduino/hardware/arduino/sam/variants/arduino_due_x/libsam_sam3x8e_gcc_rel.a(adc.o)
 .text.adc_enable_ts
                0x00000000        0xe C:/Arduino/hardware/arduino/sam/variants/arduino_due_x/libsam_sam3x8e_gcc_rel.a(adc.o)
 .text.adc_disable_ts
                0x00000000        0xe C:/Arduino/hardware/arduino/sam/variants/arduino_due_x/libsam_sam3x8e_gcc_rel.a(adc.o)
 .text.adc_set_writeprotect
                0x00000000        0xe C:/Arduino/hardware/arduino/sam/variants/arduino_due_x/libsam_sam3x8e_gcc_rel.a(adc.o)
 .text.adc_get_writeprotect_status
                0x00000000        0xa C:/Arduino/hardware/arduino/sam/variants/arduino_due_x/libsam_sam3x8e_gcc_rel.a(adc.o)
 .text.adc_get_pdc_base
                0x00000000        0x8 C:/Arduino/hardware/arduino/sam/variants/arduino_due_x/libsam_sam3x8e_gcc_rel.a(adc.o)
 .text          0x00000000        0x0 C:/Arduino/hardware/arduino/sam/variants/arduino_due_x/libsam_sam3x8e_gcc_rel.a(uotghs.o)
 .data          0x00000000        0x0 C:/Arduino/hardware/arduino/sam/variants/arduino_due_x/libsam_sam3x8e_gcc_rel.a(uotghs.o)
 .bss           0x00000000        0x0 C:/Arduino/hardware/arduino/sam/variants/arduino_due_x/libsam_sam3x8e_gcc_rel.a(uotghs.o)
 .text          0x00000000        0x0 C:/Arduino/hardware/arduino/sam/variants/arduino_due_x/libsam_sam3x8e_gcc_rel.a(dacc.o)
 .data          0x00000000        0x0 C:/Arduino/hardware/arduino/sam/variants/arduino_due_x/libsam_sam3x8e_gcc_rel.a(dacc.o)
 .bss           0x00000000        0x0 C:/Arduino/hardware/arduino/sam/variants/arduino_due_x/libsam_sam3x8e_gcc_rel.a(dacc.o)
 .text.dacc_reset
                0x00000000        0x6 C:/Arduino/hardware/arduino/sam/variants/arduino_due_x/libsam_sam3x8e_gcc_rel.a(dacc.o)
 .text.dacc_set_trigger
                0x00000000       0x18 C:/Arduino/hardware/arduino/sam/variants/arduino_due_x/libsam_sam3x8e_gcc_rel.a(dacc.o)
 .text.dacc_disable_trigger
                0x00000000        0xa C:/Arduino/hardware/arduino/sam/variants/arduino_due_x/libsam_sam3x8e_gcc_rel.a(dacc.o)
 .text.dacc_set_transfer_mode
                0x00000000       0x16 C:/Arduino/hardware/arduino/sam/variants/arduino_due_x/libsam_sam3x8e_gcc_rel.a(dacc.o)
 .text.dacc_enable_interrupt
                0x00000000        0x4 C:/Arduino/hardware/arduino/sam/variants/arduino_due_x/libsam_sam3x8e_gcc_rel.a(dacc.o)
 .text.dacc_disable_interrupt
                0x00000000        0x4 C:/Arduino/hardware/arduino/sam/variants/arduino_due_x/libsam_sam3x8e_gcc_rel.a(dacc.o)
 .text.dacc_get_interrupt_mask
                0x00000000        0x4 C:/Arduino/hardware/arduino/sam/variants/arduino_due_x/libsam_sam3x8e_gcc_rel.a(dacc.o)
 .text.dacc_get_interrupt_status
                0x00000000        0x4 C:/Arduino/hardware/arduino/sam/variants/arduino_due_x/libsam_sam3x8e_gcc_rel.a(dacc.o)
 .text.dacc_write_conversion_data
                0x00000000        0x4 C:/Arduino/hardware/arduino/sam/variants/arduino_due_x/libsam_sam3x8e_gcc_rel.a(dacc.o)
 .text.dacc_set_writeprotect
                0x00000000       0x18 C:/Arduino/hardware/arduino/sam/variants/arduino_due_x/libsam_sam3x8e_gcc_rel.a(dacc.o)
 .text.dacc_get_writeprotect_status
                0x00000000        0x6 C:/Arduino/hardware/arduino/sam/variants/arduino_due_x/libsam_sam3x8e_gcc_rel.a(dacc.o)
 .text.dacc_get_pdc_base
                0x00000000        0x8 C:/Arduino/hardware/arduino/sam/variants/arduino_due_x/libsam_sam3x8e_gcc_rel.a(dacc.o)
 .text.dacc_set_channel_selection
                0x00000000       0x18 C:/Arduino/hardware/arduino/sam/variants/arduino_due_x/libsam_sam3x8e_gcc_rel.a(dacc.o)
 .text.dacc_enable_flexible_selection
                0x00000000        0xa C:/Arduino/hardware/arduino/sam/variants/arduino_due_x/libsam_sam3x8e_gcc_rel.a(dacc.o)
 .text.dacc_set_power_save
                0x00000000       0x28 C:/Arduino/hardware/arduino/sam/variants/arduino_due_x/libsam_sam3x8e_gcc_rel.a(dacc.o)
 .text.dacc_set_timing
                0x00000000       0x30 C:/Arduino/hardware/arduino/sam/variants/arduino_due_x/libsam_sam3x8e_gcc_rel.a(dacc.o)
 .text.dacc_enable_channel
                0x00000000       0x14 C:/Arduino/hardware/arduino/sam/variants/arduino_due_x/libsam_sam3x8e_gcc_rel.a(dacc.o)
 .text.dacc_disable_channel
                0x00000000       0x14 C:/Arduino/hardware/arduino/sam/variants/arduino_due_x/libsam_sam3x8e_gcc_rel.a(dacc.o)
 .text.dacc_get_channel_status
                0x00000000        0x4 C:/Arduino/hardware/arduino/sam/variants/arduino_due_x/libsam_sam3x8e_gcc_rel.a(dacc.o)
 .text.dacc_set_analog_control
                0x00000000        0x8 C:/Arduino/hardware/arduino/sam/variants/arduino_due_x/libsam_sam3x8e_gcc_rel.a(dacc.o)
 .text.dacc_get_analog_control
                0x00000000        0x6 C:/Arduino/hardware/arduino/sam/variants/arduino_due_x/libsam_sam3x8e_gcc_rel.a(dacc.o)
 .text          0x00000000        0x0 C:/Users/jon_000/Git/ALFRED_TEST/Release/arduino.ar(WInterrupts.c.o)
 .data          0x00000000        0x0 C:/Users/jon_000/Git/ALFRED_TEST/Release/arduino.ar(WInterrupts.c.o)
 .bss           0x00000000        0x0 C:/Users/jon_000/Git/ALFRED_TEST/Release/arduino.ar(WInterrupts.c.o)
 .text.detachInterrupt
                0x00000000       0x14 C:/Users/jon_000/Git/ALFRED_TEST/Release/arduino.ar(WInterrupts.c.o)
 .text.attachInterrupt
                0x00000000      0x154 C:/Users/jon_000/Git/ALFRED_TEST/Release/arduino.ar(WInterrupts.c.o)
 .bss.enabled.6795
                0x00000000        0x4 C:/Users/jon_000/Git/ALFRED_TEST/Release/arduino.ar(WInterrupts.c.o)
 .text          0x00000000        0x0 C:/Users/jon_000/Git/ALFRED_TEST/Release/arduino.ar(cortex_handlers.c.o)
 .data          0x00000000        0x0 C:/Users/jon_000/Git/ALFRED_TEST/Release/arduino.ar(cortex_handlers.c.o)
 .bss           0x00000000        0x0 C:/Users/jon_000/Git/ALFRED_TEST/Release/arduino.ar(cortex_handlers.c.o)
 .text          0x00000000        0x0 C:/Users/jon_000/Git/ALFRED_TEST/Release/arduino.ar(main.cpp.o)
 .data          0x00000000        0x0 C:/Users/jon_000/Git/ALFRED_TEST/Release/arduino.ar(main.cpp.o)
 .bss           0x00000000        0x0 C:/Users/jon_000/Git/ALFRED_TEST/Release/arduino.ar(main.cpp.o)
 .text          0x00000000        0x0 C:/Users/jon_000/Git/ALFRED_TEST/Release/arduino.ar(USBCore.cpp.o)
 .data          0x00000000        0x0 C:/Users/jon_000/Git/ALFRED_TEST/Release/arduino.ar(USBCore.cpp.o)
 .bss           0x00000000        0x0 C:/Users/jon_000/Git/ALFRED_TEST/Release/arduino.ar(USBCore.cpp.o)
 .text._ZN10USBDevice_10configuredEv
                0x00000000       0x10 C:/Users/jon_000/Git/ALFRED_TEST/Release/arduino.ar(USBCore.cpp.o)
 .text._ZN10USBDevice_4pollEv
                0x00000000        0x2 C:/Users/jon_000/Git/ALFRED_TEST/Release/arduino.ar(USBCore.cpp.o)
 .text._ZN10USBDevice_6detachEv
                0x00000000       0x14 C:/Users/jon_000/Git/ALFRED_TEST/Release/arduino.ar(USBCore.cpp.o)
 .text._ZN10USBDevice_C2Ev
                0x00000000       0x24 C:/Users/jon_000/Git/ALFRED_TEST/Release/arduino.ar(USBCore.cpp.o)
 .text._Z14USBD_Connectedv
                0x00000000       0x1c C:/Users/jon_000/Git/ALFRED_TEST/Release/arduino.ar(USBCore.cpp.o)
 .bss.RxLEDPulse
                0x00000000        0x1 C:/Users/jon_000/Git/ALFRED_TEST/Release/arduino.ar(USBCore.cpp.o)
 .bss.TxLEDPulse
                0x00000000        0x1 C:/Users/jon_000/Git/ALFRED_TEST/Release/arduino.ar(USBCore.cpp.o)
 .text          0x00000000        0x0 C:/Users/jon_000/Git/ALFRED_TEST/Release/arduino.ar(Reset.cpp.o)
 .data          0x00000000        0x0 C:/Users/jon_000/Git/ALFRED_TEST/Release/arduino.ar(Reset.cpp.o)
 .bss           0x00000000        0x0 C:/Users/jon_000/Git/ALFRED_TEST/Release/arduino.ar(Reset.cpp.o)
 .group         0x00000000        0x8 C:/Users/jon_000/Git/ALFRED_TEST/Release/arduino.ar(CDC.cpp.o)
 .text          0x00000000        0x0 C:/Users/jon_000/Git/ALFRED_TEST/Release/arduino.ar(CDC.cpp.o)
 .data          0x00000000        0x0 C:/Users/jon_000/Git/ALFRED_TEST/Release/arduino.ar(CDC.cpp.o)
 .bss           0x00000000        0x0 C:/Users/jon_000/Git/ALFRED_TEST/Release/arduino.ar(CDC.cpp.o)
 .text._ZN7Serial_5beginEm
                0x00000000        0x2 C:/Users/jon_000/Git/ALFRED_TEST/Release/arduino.ar(CDC.cpp.o)
 .text._ZN7Serial_5beginEmh
                0x00000000        0x2 C:/Users/jon_000/Git/ALFRED_TEST/Release/arduino.ar(CDC.cpp.o)
 .text._ZN7Serial_3endEv
                0x00000000        0x2 C:/Users/jon_000/Git/ALFRED_TEST/Release/arduino.ar(CDC.cpp.o)
 .text._ZN7Serial_cvbEv
                0x00000000       0x28 C:/Users/jon_000/Git/ALFRED_TEST/Release/arduino.ar(CDC.cpp.o)
 .rodata._ZTV6Stream
                0x00000000       0x20 C:/Users/jon_000/Git/ALFRED_TEST/Release/arduino.ar(CDC.cpp.o)
 .data._serialPeek
                0x00000000        0x4 C:/Users/jon_000/Git/ALFRED_TEST/Release/arduino.ar(CDC.cpp.o)
 .text          0x00000000        0x0 C:/Users/jon_000/Git/ALFRED_TEST/Release/arduino.ar(HID.cpp.o)
 .data          0x00000000        0x0 C:/Users/jon_000/Git/ALFRED_TEST/Release/arduino.ar(HID.cpp.o)
 .bss           0x00000000        0x0 C:/Users/jon_000/Git/ALFRED_TEST/Release/arduino.ar(HID.cpp.o)
 .text._ZN6Mouse_C2Ev
                0x00000000        0x6 C:/Users/jon_000/Git/ALFRED_TEST/Release/arduino.ar(HID.cpp.o)
 .text._ZN6Mouse_5beginEv
                0x00000000        0x2 C:/Users/jon_000/Git/ALFRED_TEST/Release/arduino.ar(HID.cpp.o)
 .text._ZN6Mouse_3endEv
                0x00000000        0x2 C:/Users/jon_000/Git/ALFRED_TEST/Release/arduino.ar(HID.cpp.o)
 .text._ZN6Mouse_9isPressedEh
                0x00000000        0xc C:/Users/jon_000/Git/ALFRED_TEST/Release/arduino.ar(HID.cpp.o)
 .text._ZN9Keyboard_C2Ev
                0x00000000       0x10 C:/Users/jon_000/Git/ALFRED_TEST/Release/arduino.ar(HID.cpp.o)
 .text._ZN9Keyboard_5beginEv
                0x00000000        0x2 C:/Users/jon_000/Git/ALFRED_TEST/Release/arduino.ar(HID.cpp.o)
 .text._ZN9Keyboard_3endEv
                0x00000000        0x2 C:/Users/jon_000/Git/ALFRED_TEST/Release/arduino.ar(HID.cpp.o)
 .text._ZN6Mouse_4moveEaaa
                0x00000000       0x20 C:/Users/jon_000/Git/ALFRED_TEST/Release/arduino.ar(HID.cpp.o)
 .text._ZN6Mouse_7buttonsEh
                0x00000000       0x14 C:/Users/jon_000/Git/ALFRED_TEST/Release/arduino.ar(HID.cpp.o)
 .text._ZN6Mouse_7releaseEh
                0x00000000        0xa C:/Users/jon_000/Git/ALFRED_TEST/Release/arduino.ar(HID.cpp.o)
 .text._ZN6Mouse_5pressEh
                0x00000000        0x8 C:/Users/jon_000/Git/ALFRED_TEST/Release/arduino.ar(HID.cpp.o)
 .text._ZN6Mouse_5clickEh
                0x00000000       0x22 C:/Users/jon_000/Git/ALFRED_TEST/Release/arduino.ar(HID.cpp.o)
 .text          0x00000000        0x0 C:/Arduino/hardware/arduino/sam/variants/arduino_due_x/libsam_sam3x8e_gcc_rel.a(interrupt_sam_nvic.o)
 .data          0x00000000        0x0 C:/Arduino/hardware/arduino/sam/variants/arduino_due_x/libsam_sam3x8e_gcc_rel.a(interrupt_sam_nvic.o)
 .bss           0x00000000        0x0 C:/Arduino/hardware/arduino/sam/variants/arduino_due_x/libsam_sam3x8e_gcc_rel.a(interrupt_sam_nvic.o)
 .text          0x00000000        0x0 C:/Arduino/hardware/arduino/sam/variants/arduino_due_x/libsam_sam3x8e_gcc_rel.a(uotghs_device.o)
 .data          0x00000000        0x0 C:/Arduino/hardware/arduino/sam/variants/arduino_due_x/libsam_sam3x8e_gcc_rel.a(uotghs_device.o)
 .bss           0x00000000        0x0 C:/Arduino/hardware/arduino/sam/variants/arduino_due_x/libsam_sam3x8e_gcc_rel.a(uotghs_device.o)
 .text.UDD_Detach
                0x00000000       0x10 C:/Arduino/hardware/arduino/sam/variants/arduino_due_x/libsam_sam3x8e_gcc_rel.a(uotghs_device.o)
 .text.UDD_WaitForINOrOUT
                0x00000000       0x24 C:/Arduino/hardware/arduino/sam/variants/arduino_due_x/libsam_sam3x8e_gcc_rel.a(uotghs_device.o)
 .text.UDD_ReadWriteAllowed
                0x00000000       0x14 C:/Arduino/hardware/arduino/sam/variants/arduino_due_x/libsam_sam3x8e_gcc_rel.a(uotghs_device.o)
 .text.UDD_GetFrameNumber
                0x00000000       0x14 C:/Arduino/hardware/arduino/sam/variants/arduino_due_x/libsam_sam3x8e_gcc_rel.a(uotghs_device.o)
 .text          0x00000000       0x24 c:/arduino/hardware/tools/g++_arm_none_eabi/bin/../lib/gcc/arm-none-eabi/4.4.1/../../../../arm-none-eabi/lib/thumb2\libm.a(lib_a-s_isinfd.o)
 .data          0x00000000        0x0 c:/arduino/hardware/tools/g++_arm_none_eabi/bin/../lib/gcc/arm-none-eabi/4.4.1/../../../../arm-none-eabi/lib/thumb2\libm.a(lib_a-s_isinfd.o)
 .bss           0x00000000        0x0 c:/arduino/hardware/tools/g++_arm_none_eabi/bin/../lib/gcc/arm-none-eabi/4.4.1/../../../../arm-none-eabi/lib/thumb2\libm.a(lib_a-s_isinfd.o)
 .text          0x00000000       0x1c c:/arduino/hardware/tools/g++_arm_none_eabi/bin/../lib/gcc/arm-none-eabi/4.4.1/../../../../arm-none-eabi/lib/thumb2\libm.a(lib_a-s_isnand.o)
 .data          0x00000000        0x0 c:/arduino/hardware/tools/g++_arm_none_eabi/bin/../lib/gcc/arm-none-eabi/4.4.1/../../../../arm-none-eabi/lib/thumb2\libm.a(lib_a-s_isnand.o)
 .bss           0x00000000        0x0 c:/arduino/hardware/tools/g++_arm_none_eabi/bin/../lib/gcc/arm-none-eabi/4.4.1/../../../../arm-none-eabi/lib/thumb2\libm.a(lib_a-s_isnand.o)
 .data          0x00000000        0x0 c:/arduino/hardware/tools/g++_arm_none_eabi/bin/../lib/gcc/arm-none-eabi/4.4.1/thumb2\libgcc.a(_arm_addsubdf3.o)
 .bss           0x00000000        0x0 c:/arduino/hardware/tools/g++_arm_none_eabi/bin/../lib/gcc/arm-none-eabi/4.4.1/thumb2\libgcc.a(_arm_addsubdf3.o)
 .data          0x00000000        0x0 c:/arduino/hardware/tools/g++_arm_none_eabi/bin/../lib/gcc/arm-none-eabi/4.4.1/thumb2\libgcc.a(_arm_muldivdf3.o)
 .bss           0x00000000        0x0 c:/arduino/hardware/tools/g++_arm_none_eabi/bin/../lib/gcc/arm-none-eabi/4.4.1/thumb2\libgcc.a(_arm_muldivdf3.o)
 .data          0x00000000        0x0 c:/arduino/hardware/tools/g++_arm_none_eabi/bin/../lib/gcc/arm-none-eabi/4.4.1/thumb2\libgcc.a(_arm_cmpdf2.o)
 .bss           0x00000000        0x0 c:/arduino/hardware/tools/g++_arm_none_eabi/bin/../lib/gcc/arm-none-eabi/4.4.1/thumb2\libgcc.a(_arm_cmpdf2.o)
 .data          0x00000000        0x0 c:/arduino/hardware/tools/g++_arm_none_eabi/bin/../lib/gcc/arm-none-eabi/4.4.1/thumb2\libgcc.a(_arm_fixdfsi.o)
 .bss           0x00000000        0x0 c:/arduino/hardware/tools/g++_arm_none_eabi/bin/../lib/gcc/arm-none-eabi/4.4.1/thumb2\libgcc.a(_arm_fixdfsi.o)
 .text          0x00000000       0x40 c:/arduino/hardware/tools/g++_arm_none_eabi/bin/../lib/gcc/arm-none-eabi/4.4.1/thumb2\libgcc.a(_arm_fixunsdfsi.o)
 .data          0x00000000        0x0 c:/arduino/hardware/tools/g++_arm_none_eabi/bin/../lib/gcc/arm-none-eabi/4.4.1/thumb2\libgcc.a(_arm_fixunsdfsi.o)
 .bss           0x00000000        0x0 c:/arduino/hardware/tools/g++_arm_none_eabi/bin/../lib/gcc/arm-none-eabi/4.4.1/thumb2\libgcc.a(_arm_fixunsdfsi.o)
 .data          0x00000000        0x0 c:/arduino/hardware/tools/g++_arm_none_eabi/bin/../lib/gcc/arm-none-eabi/4.4.1/thumb2\libgcc.a(_arm_truncdfsf2.o)
 .bss           0x00000000        0x0 c:/arduino/hardware/tools/g++_arm_none_eabi/bin/../lib/gcc/arm-none-eabi/4.4.1/thumb2\libgcc.a(_arm_truncdfsf2.o)
 .data          0x00000000        0x0 c:/arduino/hardware/tools/g++_arm_none_eabi/bin/../lib/gcc/arm-none-eabi/4.4.1/thumb2\libgcc.a(_arm_addsubsf3.o)
 .bss           0x00000000        0x0 c:/arduino/hardware/tools/g++_arm_none_eabi/bin/../lib/gcc/arm-none-eabi/4.4.1/thumb2\libgcc.a(_arm_addsubsf3.o)
 .text          0x00000000      0x2a0 c:/arduino/hardware/tools/g++_arm_none_eabi/bin/../lib/gcc/arm-none-eabi/4.4.1/thumb2\libgcc.a(_arm_muldivsf3.o)
 .data          0x00000000        0x0 c:/arduino/hardware/tools/g++_arm_none_eabi/bin/../lib/gcc/arm-none-eabi/4.4.1/thumb2\libgcc.a(_arm_muldivsf3.o)
 .bss           0x00000000        0x0 c:/arduino/hardware/tools/g++_arm_none_eabi/bin/../lib/gcc/arm-none-eabi/4.4.1/thumb2\libgcc.a(_arm_muldivsf3.o)
 .data          0x00000000        0x0 c:/arduino/hardware/tools/g++_arm_none_eabi/bin/../lib/gcc/arm-none-eabi/4.4.1/thumb2\libgcc.a(_arm_cmpsf2.o)
 .bss           0x00000000        0x0 c:/arduino/hardware/tools/g++_arm_none_eabi/bin/../lib/gcc/arm-none-eabi/4.4.1/thumb2\libgcc.a(_arm_cmpsf2.o)
 .data          0x00000000        0x0 c:/arduino/hardware/tools/g++_arm_none_eabi/bin/../lib/gcc/arm-none-eabi/4.4.1/../../../../arm-none-eabi/lib/thumb2\libc.a(lib_a-assert.o)
 .bss           0x00000000        0x0 c:/arduino/hardware/tools/g++_arm_none_eabi/bin/../lib/gcc/arm-none-eabi/4.4.1/../../../../arm-none-eabi/lib/thumb2\libc.a(lib_a-assert.o)
 .text          0x00000000        0x8 c:/arduino/hardware/tools/g++_arm_none_eabi/bin/../lib/gcc/arm-none-eabi/4.4.1/../../../../arm-none-eabi/lib/thumb2\libc.a(lib_a-atof.o)
 .data          0x00000000        0x0 c:/arduino/hardware/tools/g++_arm_none_eabi/bin/../lib/gcc/arm-none-eabi/4.4.1/../../../../arm-none-eabi/lib/thumb2\libc.a(lib_a-atof.o)
 .bss           0x00000000        0x0 c:/arduino/hardware/tools/g++_arm_none_eabi/bin/../lib/gcc/arm-none-eabi/4.4.1/../../../../arm-none-eabi/lib/thumb2\libc.a(lib_a-atof.o)
 .text          0x00000000       0x10 c:/arduino/hardware/tools/g++_arm_none_eabi/bin/../lib/gcc/arm-none-eabi/4.4.1/../../../../arm-none-eabi/lib/thumb2\libc.a(lib_a-atol.o)
 .data          0x00000000        0x0 c:/arduino/hardware/tools/g++_arm_none_eabi/bin/../lib/gcc/arm-none-eabi/4.4.1/../../../../arm-none-eabi/lib/thumb2\libc.a(lib_a-atol.o)
 .bss           0x00000000        0x0 c:/arduino/hardware/tools/g++_arm_none_eabi/bin/../lib/gcc/arm-none-eabi/4.4.1/../../../../arm-none-eabi/lib/thumb2\libc.a(lib_a-atol.o)
 .data          0x00000000        0x0 c:/arduino/hardware/tools/g++_arm_none_eabi/bin/../lib/gcc/arm-none-eabi/4.4.1/../../../../arm-none-eabi/lib/thumb2\libc.a(lib_a-fiprintf.o)
 .bss           0x00000000        0x0 c:/arduino/hardware/tools/g++_arm_none_eabi/bin/../lib/gcc/arm-none-eabi/4.4.1/../../../../arm-none-eabi/lib/thumb2\libc.a(lib_a-fiprintf.o)
 .text          0x00000000        0x0 c:/arduino/hardware/tools/g++_arm_none_eabi/bin/../lib/gcc/arm-none-eabi/4.4.1/../../../../arm-none-eabi/lib/thumb2\libc.a(lib_a-impure.o)
 .bss           0x00000000        0x0 c:/arduino/hardware/tools/g++_arm_none_eabi/bin/../lib/gcc/arm-none-eabi/4.4.1/../../../../arm-none-eabi/lib/thumb2\libc.a(lib_a-impure.o)
 .data          0x00000000        0x0 c:/arduino/hardware/tools/g++_arm_none_eabi/bin/../lib/gcc/arm-none-eabi/4.4.1/../../../../arm-none-eabi/lib/thumb2\libc.a(lib_a-init.o)
 .bss           0x00000000        0x0 c:/arduino/hardware/tools/g++_arm_none_eabi/bin/../lib/gcc/arm-none-eabi/4.4.1/../../../../arm-none-eabi/lib/thumb2\libc.a(lib_a-init.o)
 .data          0x00000000        0x0 c:/arduino/hardware/tools/g++_arm_none_eabi/bin/../lib/gcc/arm-none-eabi/4.4.1/../../../../arm-none-eabi/lib/thumb2\libc.a(lib_a-iprintf.o)
 .bss           0x00000000        0x0 c:/arduino/hardware/tools/g++_arm_none_eabi/bin/../lib/gcc/arm-none-eabi/4.4.1/../../../../arm-none-eabi/lib/thumb2\libc.a(lib_a-iprintf.o)
 .text          0x00000000       0x14 c:/arduino/hardware/tools/g++_arm_none_eabi/bin/../lib/gcc/arm-none-eabi/4.4.1/../../../../arm-none-eabi/lib/thumb2\libc.a(lib_a-isspace.o)
 .data          0x00000000        0x0 c:/arduino/hardware/tools/g++_arm_none_eabi/bin/../lib/gcc/arm-none-eabi/4.4.1/../../../../arm-none-eabi/lib/thumb2\libc.a(lib_a-isspace.o)
 .bss           0x00000000        0x0 c:/arduino/hardware/tools/g++_arm_none_eabi/bin/../lib/gcc/arm-none-eabi/4.4.1/../../../../arm-none-eabi/lib/thumb2\libc.a(lib_a-isspace.o)
 .text          0x00000000       0x20 c:/arduino/hardware/tools/g++_arm_none_eabi/bin/../lib/gcc/arm-none-eabi/4.4.1/../../../../arm-none-eabi/lib/thumb2\libc.a(lib_a-malloc.o)
 .data          0x00000000        0x0 c:/arduino/hardware/tools/g++_arm_none_eabi/bin/../lib/gcc/arm-none-eabi/4.4.1/../../../../arm-none-eabi/lib/thumb2\libc.a(lib_a-malloc.o)
 .bss           0x00000000        0x0 c:/arduino/hardware/tools/g++_arm_none_eabi/bin/../lib/gcc/arm-none-eabi/4.4.1/../../../../arm-none-eabi/lib/thumb2\libc.a(lib_a-malloc.o)
 .data          0x00000000        0x0 c:/arduino/hardware/tools/g++_arm_none_eabi/bin/../lib/gcc/arm-none-eabi/4.4.1/../../../../arm-none-eabi/lib/thumb2\libc.a(lib_a-memcpy.o)
 .bss           0x00000000        0x0 c:/arduino/hardware/tools/g++_arm_none_eabi/bin/../lib/gcc/arm-none-eabi/4.4.1/../../../../arm-none-eabi/lib/thumb2\libc.a(lib_a-memcpy.o)
 .data          0x00000000        0x0 c:/arduino/hardware/tools/g++_arm_none_eabi/bin/../lib/gcc/arm-none-eabi/4.4.1/../../../../arm-none-eabi/lib/thumb2\libc.a(lib_a-memmove.o)
 .bss           0x00000000        0x0 c:/arduino/hardware/tools/g++_arm_none_eabi/bin/../lib/gcc/arm-none-eabi/4.4.1/../../../../arm-none-eabi/lib/thumb2\libc.a(lib_a-memmove.o)
 .data          0x00000000        0x0 c:/arduino/hardware/tools/g++_arm_none_eabi/bin/../lib/gcc/arm-none-eabi/4.4.1/../../../../arm-none-eabi/lib/thumb2\libc.a(lib_a-memset.o)
 .bss           0x00000000        0x0 c:/arduino/hardware/tools/g++_arm_none_eabi/bin/../lib/gcc/arm-none-eabi/4.4.1/../../../../arm-none-eabi/lib/thumb2\libc.a(lib_a-memset.o)
 .data          0x00000000        0x0 c:/arduino/hardware/tools/g++_arm_none_eabi/bin/../lib/gcc/arm-none-eabi/4.4.1/../../../../arm-none-eabi/lib/thumb2\libc.a(lib_a-mlock.o)
 .bss           0x00000000        0x0 c:/arduino/hardware/tools/g++_arm_none_eabi/bin/../lib/gcc/arm-none-eabi/4.4.1/../../../../arm-none-eabi/lib/thumb2\libc.a(lib_a-mlock.o)
 .text          0x00000000       0x14 c:/arduino/hardware/tools/g++_arm_none_eabi/bin/../lib/gcc/arm-none-eabi/4.4.1/../../../../arm-none-eabi/lib/thumb2\libc.a(lib_a-realloc.o)
 .data          0x00000000        0x0 c:/arduino/hardware/tools/g++_arm_none_eabi/bin/../lib/gcc/arm-none-eabi/4.4.1/../../../../arm-none-eabi/lib/thumb2\libc.a(lib_a-realloc.o)
 .bss           0x00000000        0x0 c:/arduino/hardware/tools/g++_arm_none_eabi/bin/../lib/gcc/arm-none-eabi/4.4.1/../../../../arm-none-eabi/lib/thumb2\libc.a(lib_a-realloc.o)
 .data          0x00000000        0x0 c:/arduino/hardware/tools/g++_arm_none_eabi/bin/../lib/gcc/arm-none-eabi/4.4.1/../../../../arm-none-eabi/lib/thumb2\libc.a(lib_a-reallocr.o)
 .bss           0x00000000        0x0 c:/arduino/hardware/tools/g++_arm_none_eabi/bin/../lib/gcc/arm-none-eabi/4.4.1/../../../../arm-none-eabi/lib/thumb2\libc.a(lib_a-reallocr.o)
 .data          0x00000000        0x0 c:/arduino/hardware/tools/g++_arm_none_eabi/bin/../lib/gcc/arm-none-eabi/4.4.1/../../../../arm-none-eabi/lib/thumb2\libc.a(lib_a-sbrkr.o)
 .bss           0x00000000        0x0 c:/arduino/hardware/tools/g++_arm_none_eabi/bin/../lib/gcc/arm-none-eabi/4.4.1/../../../../arm-none-eabi/lib/thumb2\libc.a(lib_a-sbrkr.o)
 .text          0x00000000       0x94 c:/arduino/hardware/tools/g++_arm_none_eabi/bin/../lib/gcc/arm-none-eabi/4.4.1/../../../../arm-none-eabi/lib/thumb2\libc.a(lib_a-sprintf.o)
 .data          0x00000000        0x0 c:/arduino/hardware/tools/g++_arm_none_eabi/bin/../lib/gcc/arm-none-eabi/4.4.1/../../../../arm-none-eabi/lib/thumb2\libc.a(lib_a-sprintf.o)
 .bss           0x00000000        0x0 c:/arduino/hardware/tools/g++_arm_none_eabi/bin/../lib/gcc/arm-none-eabi/4.4.1/../../../../arm-none-eabi/lib/thumb2\libc.a(lib_a-sprintf.o)
 .text          0x00000000       0xc0 c:/arduino/hardware/tools/g++_arm_none_eabi/bin/../lib/gcc/arm-none-eabi/4.4.1/../../../../arm-none-eabi/lib/thumb2\libc.a(lib_a-strchr.o)
 .data          0x00000000        0x0 c:/arduino/hardware/tools/g++_arm_none_eabi/bin/../lib/gcc/arm-none-eabi/4.4.1/../../../../arm-none-eabi/lib/thumb2\libc.a(lib_a-strchr.o)
 .bss           0x00000000        0x0 c:/arduino/hardware/tools/g++_arm_none_eabi/bin/../lib/gcc/arm-none-eabi/4.4.1/../../../../arm-none-eabi/lib/thumb2\libc.a(lib_a-strchr.o)
 .text          0x00000000      0x1dc c:/arduino/hardware/tools/g++_arm_none_eabi/bin/../lib/gcc/arm-none-eabi/4.4.1/../../../../arm-none-eabi/lib/thumb2\libc.a(lib_a-strcmp.o)
 .data          0x00000000        0x0 c:/arduino/hardware/tools/g++_arm_none_eabi/bin/../lib/gcc/arm-none-eabi/4.4.1/../../../../arm-none-eabi/lib/thumb2\libc.a(lib_a-strcmp.o)
 .bss           0x00000000        0x0 c:/arduino/hardware/tools/g++_arm_none_eabi/bin/../lib/gcc/arm-none-eabi/4.4.1/../../../../arm-none-eabi/lib/thumb2\libc.a(lib_a-strcmp.o)
 .text          0x00000000       0xbc c:/arduino/hardware/tools/g++_arm_none_eabi/bin/../lib/gcc/arm-none-eabi/4.4.1/../../../../arm-none-eabi/lib/thumb2\libc.a(lib_a-strcpy.o)
 .data          0x00000000        0x0 c:/arduino/hardware/tools/g++_arm_none_eabi/bin/../lib/gcc/arm-none-eabi/4.4.1/../../../../arm-none-eabi/lib/thumb2\libc.a(lib_a-strcpy.o)
 .bss           0x00000000        0x0 c:/arduino/hardware/tools/g++_arm_none_eabi/bin/../lib/gcc/arm-none-eabi/4.4.1/../../../../arm-none-eabi/lib/thumb2\libc.a(lib_a-strcpy.o)
 .data          0x00000000        0x0 c:/arduino/hardware/tools/g++_arm_none_eabi/bin/../lib/gcc/arm-none-eabi/4.4.1/../../../../arm-none-eabi/lib/thumb2\libc.a(lib_a-strlen.o)
 .bss           0x00000000        0x0 c:/arduino/hardware/tools/g++_arm_none_eabi/bin/../lib/gcc/arm-none-eabi/4.4.1/../../../../arm-none-eabi/lib/thumb2\libc.a(lib_a-strlen.o)
 .text          0x00000000       0xa8 c:/arduino/hardware/tools/g++_arm_none_eabi/bin/../lib/gcc/arm-none-eabi/4.4.1/../../../../arm-none-eabi/lib/thumb2\libc.a(lib_a-strncmp.o)
 .data          0x00000000        0x0 c:/arduino/hardware/tools/g++_arm_none_eabi/bin/../lib/gcc/arm-none-eabi/4.4.1/../../../../arm-none-eabi/lib/thumb2\libc.a(lib_a-strncmp.o)
 .bss           0x00000000        0x0 c:/arduino/hardware/tools/g++_arm_none_eabi/bin/../lib/gcc/arm-none-eabi/4.4.1/../../../../arm-none-eabi/lib/thumb2\libc.a(lib_a-strncmp.o)
 .text          0x00000000       0x78 c:/arduino/hardware/tools/g++_arm_none_eabi/bin/../lib/gcc/arm-none-eabi/4.4.1/../../../../arm-none-eabi/lib/thumb2\libc.a(lib_a-strncpy.o)
 .data          0x00000000        0x0 c:/arduino/hardware/tools/g++_arm_none_eabi/bin/../lib/gcc/arm-none-eabi/4.4.1/../../../../arm-none-eabi/lib/thumb2\libc.a(lib_a-strncpy.o)
 .bss           0x00000000        0x0 c:/arduino/hardware/tools/g++_arm_none_eabi/bin/../lib/gcc/arm-none-eabi/4.4.1/../../../../arm-none-eabi/lib/thumb2\libc.a(lib_a-strncpy.o)
 .text          0x00000000       0x2c c:/arduino/hardware/tools/g++_arm_none_eabi/bin/../lib/gcc/arm-none-eabi/4.4.1/../../../../arm-none-eabi/lib/thumb2\libc.a(lib_a-strrchr.o)
 .data          0x00000000        0x0 c:/arduino/hardware/tools/g++_arm_none_eabi/bin/../lib/gcc/arm-none-eabi/4.4.1/../../../../arm-none-eabi/lib/thumb2\libc.a(lib_a-strrchr.o)
 .bss           0x00000000        0x0 c:/arduino/hardware/tools/g++_arm_none_eabi/bin/../lib/gcc/arm-none-eabi/4.4.1/../../../../arm-none-eabi/lib/thumb2\libc.a(lib_a-strrchr.o)
 .text          0x00000000      0x548 c:/arduino/hardware/tools/g++_arm_none_eabi/bin/../lib/gcc/arm-none-eabi/4.4.1/../../../../arm-none-eabi/lib/thumb2\libc.a(lib_a-strstr.o)
 .data          0x00000000        0x0 c:/arduino/hardware/tools/g++_arm_none_eabi/bin/../lib/gcc/arm-none-eabi/4.4.1/../../../../arm-none-eabi/lib/thumb2\libc.a(lib_a-strstr.o)
 .bss           0x00000000        0x0 c:/arduino/hardware/tools/g++_arm_none_eabi/bin/../lib/gcc/arm-none-eabi/4.4.1/../../../../arm-none-eabi/lib/thumb2\libc.a(lib_a-strstr.o)
 .text          0x00000000     0x1010 c:/arduino/hardware/tools/g++_arm_none_eabi/bin/../lib/gcc/arm-none-eabi/4.4.1/../../../../arm-none-eabi/lib/thumb2\libc.a(lib_a-strtod.o)
 .data          0x00000000       0x28 c:/arduino/hardware/tools/g++_arm_none_eabi/bin/../lib/gcc/arm-none-eabi/4.4.1/../../../../arm-none-eabi/lib/thumb2\libc.a(lib_a-strtod.o)
 .bss           0x00000000        0x0 c:/arduino/hardware/tools/g++_arm_none_eabi/bin/../lib/gcc/arm-none-eabi/4.4.1/../../../../arm-none-eabi/lib/thumb2\libc.a(lib_a-strtod.o)
 .rodata        0x00000000       0x28 c:/arduino/hardware/tools/g++_arm_none_eabi/bin/../lib/gcc/arm-none-eabi/4.4.1/../../../../arm-none-eabi/lib/thumb2\libc.a(lib_a-strtod.o)
 .rodata.str1.4
                0x00000000       0x10 c:/arduino/hardware/tools/g++_arm_none_eabi/bin/../lib/gcc/arm-none-eabi/4.4.1/../../../../arm-none-eabi/lib/thumb2\libc.a(lib_a-strtod.o)
 .text          0x00000000      0x158 c:/arduino/hardware/tools/g++_arm_none_eabi/bin/../lib/gcc/arm-none-eabi/4.4.1/../../../../arm-none-eabi/lib/thumb2\libc.a(lib_a-strtol.o)
 .data          0x00000000        0x0 c:/arduino/hardware/tools/g++_arm_none_eabi/bin/../lib/gcc/arm-none-eabi/4.4.1/../../../../arm-none-eabi/lib/thumb2\libc.a(lib_a-strtol.o)
 .bss           0x00000000        0x0 c:/arduino/hardware/tools/g++_arm_none_eabi/bin/../lib/gcc/arm-none-eabi/4.4.1/../../../../arm-none-eabi/lib/thumb2\libc.a(lib_a-strtol.o)
 .text          0x00000000     0x15a8 c:/arduino/hardware/tools/g++_arm_none_eabi/bin/../lib/gcc/arm-none-eabi/4.4.1/../../../../arm-none-eabi/lib/thumb2\libc.a(lib_a-svfprintf.o)
 .data          0x00000000        0x0 c:/arduino/hardware/tools/g++_arm_none_eabi/bin/../lib/gcc/arm-none-eabi/4.4.1/../../../../arm-none-eabi/lib/thumb2\libc.a(lib_a-svfprintf.o)
 .bss           0x00000000        0x0 c:/arduino/hardware/tools/g++_arm_none_eabi/bin/../lib/gcc/arm-none-eabi/4.4.1/../../../../arm-none-eabi/lib/thumb2\libc.a(lib_a-svfprintf.o)
 .rodata        0x00000000       0x20 c:/arduino/hardware/tools/g++_arm_none_eabi/bin/../lib/gcc/arm-none-eabi/4.4.1/../../../../arm-none-eabi/lib/thumb2\libc.a(lib_a-svfprintf.o)
 .rodata.str1.4
                0x00000000       0x44 c:/arduino/hardware/tools/g++_arm_none_eabi/bin/../lib/gcc/arm-none-eabi/4.4.1/../../../../arm-none-eabi/lib/thumb2\libc.a(lib_a-svfprintf.o)
 .text          0x00000000       0x18 c:/arduino/hardware/tools/g++_arm_none_eabi/bin/../lib/gcc/arm-none-eabi/4.4.1/../../../../arm-none-eabi/lib/thumb2\libc.a(lib_a-tolower.o)
 .data          0x00000000        0x0 c:/arduino/hardware/tools/g++_arm_none_eabi/bin/../lib/gcc/arm-none-eabi/4.4.1/../../../../arm-none-eabi/lib/thumb2\libc.a(lib_a-tolower.o)
 .bss           0x00000000        0x0 c:/arduino/hardware/tools/g++_arm_none_eabi/bin/../lib/gcc/arm-none-eabi/4.4.1/../../../../arm-none-eabi/lib/thumb2\libc.a(lib_a-tolower.o)
 .text          0x00000000       0x18 c:/arduino/hardware/tools/g++_arm_none_eabi/bin/../lib/gcc/arm-none-eabi/4.4.1/../../../../arm-none-eabi/lib/thumb2\libc.a(lib_a-toupper.o)
 .data          0x00000000        0x0 c:/arduino/hardware/tools/g++_arm_none_eabi/bin/../lib/gcc/arm-none-eabi/4.4.1/../../../../arm-none-eabi/lib/thumb2\libc.a(lib_a-toupper.o)
 .bss           0x00000000        0x0 c:/arduino/hardware/tools/g++_arm_none_eabi/bin/../lib/gcc/arm-none-eabi/4.4.1/../../../../arm-none-eabi/lib/thumb2\libc.a(lib_a-toupper.o)
 .data          0x00000000        0x0 c:/arduino/hardware/tools/g++_arm_none_eabi/bin/../lib/gcc/arm-none-eabi/4.4.1/../../../../arm-none-eabi/lib/thumb2\libc.a(lib_a-vfiprintf.o)
 .bss           0x00000000        0x0 c:/arduino/hardware/tools/g++_arm_none_eabi/bin/../lib/gcc/arm-none-eabi/4.4.1/../../../../arm-none-eabi/lib/thumb2\libc.a(lib_a-vfiprintf.o)
 .data          0x00000000        0x0 c:/arduino/hardware/tools/g++_arm_none_eabi/bin/../lib/gcc/arm-none-eabi/4.4.1/../../../../arm-none-eabi/lib/thumb2\libc.a(lib_a-wsetup.o)
 .bss           0x00000000        0x0 c:/arduino/hardware/tools/g++_arm_none_eabi/bin/../lib/gcc/arm-none-eabi/4.4.1/../../../../arm-none-eabi/lib/thumb2\libc.a(lib_a-wsetup.o)
 .data          0x00000000        0x0 c:/arduino/hardware/tools/g++_arm_none_eabi/bin/../lib/gcc/arm-none-eabi/4.4.1/../../../../arm-none-eabi/lib/thumb2\libc.a(lib_a-abort.o)
 .bss           0x00000000        0x0 c:/arduino/hardware/tools/g++_arm_none_eabi/bin/../lib/gcc/arm-none-eabi/4.4.1/../../../../arm-none-eabi/lib/thumb2\libc.a(lib_a-abort.o)
 .text          0x00000000        0x0 c:/arduino/hardware/tools/g++_arm_none_eabi/bin/../lib/gcc/arm-none-eabi/4.4.1/../../../../arm-none-eabi/lib/thumb2\libc.a(lib_a-ctype_.o)
 .data          0x00000000        0x8 c:/arduino/hardware/tools/g++_arm_none_eabi/bin/../lib/gcc/arm-none-eabi/4.4.1/../../../../arm-none-eabi/lib/thumb2\libc.a(lib_a-ctype_.o)
 .bss           0x00000000        0x0 c:/arduino/hardware/tools/g++_arm_none_eabi/bin/../lib/gcc/arm-none-eabi/4.4.1/../../../../arm-none-eabi/lib/thumb2\libc.a(lib_a-ctype_.o)
 .rodata        0x00000000      0x104 c:/arduino/hardware/tools/g++_arm_none_eabi/bin/../lib/gcc/arm-none-eabi/4.4.1/../../../../arm-none-eabi/lib/thumb2\libc.a(lib_a-ctype_.o)
 .text          0x00000000      0xfb8 c:/arduino/hardware/tools/g++_arm_none_eabi/bin/../lib/gcc/arm-none-eabi/4.4.1/../../../../arm-none-eabi/lib/thumb2\libc.a(lib_a-dtoa.o)
 .data          0x00000000        0x0 c:/arduino/hardware/tools/g++_arm_none_eabi/bin/../lib/gcc/arm-none-eabi/4.4.1/../../../../arm-none-eabi/lib/thumb2\libc.a(lib_a-dtoa.o)
 .bss           0x00000000        0x0 c:/arduino/hardware/tools/g++_arm_none_eabi/bin/../lib/gcc/arm-none-eabi/4.4.1/../../../../arm-none-eabi/lib/thumb2\libc.a(lib_a-dtoa.o)
 .rodata.str1.4
                0x00000000       0x14 c:/arduino/hardware/tools/g++_arm_none_eabi/bin/../lib/gcc/arm-none-eabi/4.4.1/../../../../arm-none-eabi/lib/thumb2\libc.a(lib_a-dtoa.o)
 .data          0x00000000        0x0 c:/arduino/hardware/tools/g++_arm_none_eabi/bin/../lib/gcc/arm-none-eabi/4.4.1/../../../../arm-none-eabi/lib/thumb2\libc.a(lib_a-fflush.o)
 .bss           0x00000000        0x0 c:/arduino/hardware/tools/g++_arm_none_eabi/bin/../lib/gcc/arm-none-eabi/4.4.1/../../../../arm-none-eabi/lib/thumb2\libc.a(lib_a-fflush.o)
 .data          0x00000000        0x0 c:/arduino/hardware/tools/g++_arm_none_eabi/bin/../lib/gcc/arm-none-eabi/4.4.1/../../../../arm-none-eabi/lib/thumb2\libc.a(lib_a-findfp.o)
 .bss           0x00000000        0x0 c:/arduino/hardware/tools/g++_arm_none_eabi/bin/../lib/gcc/arm-none-eabi/4.4.1/../../../../arm-none-eabi/lib/thumb2\libc.a(lib_a-findfp.o)
 .data          0x00000000        0x0 c:/arduino/hardware/tools/g++_arm_none_eabi/bin/../lib/gcc/arm-none-eabi/4.4.1/../../../../arm-none-eabi/lib/thumb2\libc.a(lib_a-freer.o)
 .bss           0x00000000        0x0 c:/arduino/hardware/tools/g++_arm_none_eabi/bin/../lib/gcc/arm-none-eabi/4.4.1/../../../../arm-none-eabi/lib/thumb2\libc.a(lib_a-freer.o)
 .data          0x00000000        0x0 c:/arduino/hardware/tools/g++_arm_none_eabi/bin/../lib/gcc/arm-none-eabi/4.4.1/../../../../arm-none-eabi/lib/thumb2\libc.a(lib_a-fvwrite.o)
 .bss           0x00000000        0x0 c:/arduino/hardware/tools/g++_arm_none_eabi/bin/../lib/gcc/arm-none-eabi/4.4.1/../../../../arm-none-eabi/lib/thumb2\libc.a(lib_a-fvwrite.o)
 .data          0x00000000        0x0 c:/arduino/hardware/tools/g++_arm_none_eabi/bin/../lib/gcc/arm-none-eabi/4.4.1/../../../../arm-none-eabi/lib/thumb2\libc.a(lib_a-fwalk.o)
 .bss           0x00000000        0x0 c:/arduino/hardware/tools/g++_arm_none_eabi/bin/../lib/gcc/arm-none-eabi/4.4.1/../../../../arm-none-eabi/lib/thumb2\libc.a(lib_a-fwalk.o)
 .text          0x00000000      0x5a8 c:/arduino/hardware/tools/g++_arm_none_eabi/bin/../lib/gcc/arm-none-eabi/4.4.1/../../../../arm-none-eabi/lib/thumb2\libc.a(lib_a-gdtoa-gethex.o)
 .data          0x00000000        0x0 c:/arduino/hardware/tools/g++_arm_none_eabi/bin/../lib/gcc/arm-none-eabi/4.4.1/../../../../arm-none-eabi/lib/thumb2\libc.a(lib_a-gdtoa-gethex.o)
 .bss           0x00000000        0x0 c:/arduino/hardware/tools/g++_arm_none_eabi/bin/../lib/gcc/arm-none-eabi/4.4.1/../../../../arm-none-eabi/lib/thumb2\libc.a(lib_a-gdtoa-gethex.o)
 .rodata.str1.4
                0x00000000       0x1c c:/arduino/hardware/tools/g++_arm_none_eabi/bin/../lib/gcc/arm-none-eabi/4.4.1/../../../../arm-none-eabi/lib/thumb2\libc.a(lib_a-gdtoa-gethex.o)
 COMMON         0x00000000      0x100 c:/arduino/hardware/tools/g++_arm_none_eabi/bin/../lib/gcc/arm-none-eabi/4.4.1/../../../../arm-none-eabi/lib/thumb2\libc.a(lib_a-gdtoa-gethex.o)
 .text          0x00000000      0x1bc c:/arduino/hardware/tools/g++_arm_none_eabi/bin/../lib/gcc/arm-none-eabi/4.4.1/../../../../arm-none-eabi/lib/thumb2\libc.a(lib_a-gdtoa-hexnan.o)
 .data          0x00000000        0x0 c:/arduino/hardware/tools/g++_arm_none_eabi/bin/../lib/gcc/arm-none-eabi/4.4.1/../../../../arm-none-eabi/lib/thumb2\libc.a(lib_a-gdtoa-hexnan.o)
 .bss           0x00000000        0x0 c:/arduino/hardware/tools/g++_arm_none_eabi/bin/../lib/gcc/arm-none-eabi/4.4.1/../../../../arm-none-eabi/lib/thumb2\libc.a(lib_a-gdtoa-hexnan.o)
 .text          0x00000000       0x74 c:/arduino/hardware/tools/g++_arm_none_eabi/bin/../lib/gcc/arm-none-eabi/4.4.1/../../../../arm-none-eabi/lib/thumb2\libc.a(lib_a-locale.o)
 .data          0x00000000       0x10 c:/arduino/hardware/tools/g++_arm_none_eabi/bin/../lib/gcc/arm-none-eabi/4.4.1/../../../../arm-none-eabi/lib/thumb2\libc.a(lib_a-locale.o)
 .bss           0x00000000        0xc c:/arduino/hardware/tools/g++_arm_none_eabi/bin/../lib/gcc/arm-none-eabi/4.4.1/../../../../arm-none-eabi/lib/thumb2\libc.a(lib_a-locale.o)
 .rodata        0x00000000       0x34 c:/arduino/hardware/tools/g++_arm_none_eabi/bin/../lib/gcc/arm-none-eabi/4.4.1/../../../../arm-none-eabi/lib/thumb2\libc.a(lib_a-locale.o)
 .rodata.str1.4
                0x00000000       0x18 c:/arduino/hardware/tools/g++_arm_none_eabi/bin/../lib/gcc/arm-none-eabi/4.4.1/../../../../arm-none-eabi/lib/thumb2\libc.a(lib_a-locale.o)
 .data          0x00000000        0x0 c:/arduino/hardware/tools/g++_arm_none_eabi/bin/../lib/gcc/arm-none-eabi/4.4.1/../../../../arm-none-eabi/lib/thumb2\libc.a(lib_a-makebuf.o)
 .bss           0x00000000        0x0 c:/arduino/hardware/tools/g++_arm_none_eabi/bin/../lib/gcc/arm-none-eabi/4.4.1/../../../../arm-none-eabi/lib/thumb2\libc.a(lib_a-makebuf.o)
 .data          0x00000000        0x0 c:/arduino/hardware/tools/g++_arm_none_eabi/bin/../lib/gcc/arm-none-eabi/4.4.1/../../../../arm-none-eabi/lib/thumb2\libc.a(lib_a-memchr.o)
 .bss           0x00000000        0x0 c:/arduino/hardware/tools/g++_arm_none_eabi/bin/../lib/gcc/arm-none-eabi/4.4.1/../../../../arm-none-eabi/lib/thumb2\libc.a(lib_a-memchr.o)
 .text          0x00000000       0x64 c:/arduino/hardware/tools/g++_arm_none_eabi/bin/../lib/gcc/arm-none-eabi/4.4.1/../../../../arm-none-eabi/lib/thumb2\libc.a(lib_a-memcmp.o)
 .data          0x00000000        0x0 c:/arduino/hardware/tools/g++_arm_none_eabi/bin/../lib/gcc/arm-none-eabi/4.4.1/../../../../arm-none-eabi/lib/thumb2\libc.a(lib_a-memcmp.o)
 .bss           0x00000000        0x0 c:/arduino/hardware/tools/g++_arm_none_eabi/bin/../lib/gcc/arm-none-eabi/4.4.1/../../../../arm-none-eabi/lib/thumb2\libc.a(lib_a-memcmp.o)
 .text          0x00000000      0x958 c:/arduino/hardware/tools/g++_arm_none_eabi/bin/../lib/gcc/arm-none-eabi/4.4.1/../../../../arm-none-eabi/lib/thumb2\libc.a(lib_a-mprec.o)
 .data          0x00000000        0x0 c:/arduino/hardware/tools/g++_arm_none_eabi/bin/../lib/gcc/arm-none-eabi/4.4.1/../../../../arm-none-eabi/lib/thumb2\libc.a(lib_a-mprec.o)
 .bss           0x00000000        0x0 c:/arduino/hardware/tools/g++_arm_none_eabi/bin/../lib/gcc/arm-none-eabi/4.4.1/../../../../arm-none-eabi/lib/thumb2\libc.a(lib_a-mprec.o)
 .rodata        0x00000000      0x128 c:/arduino/hardware/tools/g++_arm_none_eabi/bin/../lib/gcc/arm-none-eabi/4.4.1/../../../../arm-none-eabi/lib/thumb2\libc.a(lib_a-mprec.o)
 .text          0x00000000      0x10c c:/arduino/hardware/tools/g++_arm_none_eabi/bin/../lib/gcc/arm-none-eabi/4.4.1/../../../../arm-none-eabi/lib/thumb2\libc.a(lib_a-reent.o)
 .data          0x00000000        0x0 c:/arduino/hardware/tools/g++_arm_none_eabi/bin/../lib/gcc/arm-none-eabi/4.4.1/../../../../arm-none-eabi/lib/thumb2\libc.a(lib_a-reent.o)
 .bss           0x00000000        0x0 c:/arduino/hardware/tools/g++_arm_none_eabi/bin/../lib/gcc/arm-none-eabi/4.4.1/../../../../arm-none-eabi/lib/thumb2\libc.a(lib_a-reent.o)
 .data          0x00000000        0x0 c:/arduino/hardware/tools/g++_arm_none_eabi/bin/../lib/gcc/arm-none-eabi/4.4.1/../../../../arm-none-eabi/lib/thumb2\libc.a(lib_a-signal.o)
 .bss           0x00000000        0x0 c:/arduino/hardware/tools/g++_arm_none_eabi/bin/../lib/gcc/arm-none-eabi/4.4.1/../../../../arm-none-eabi/lib/thumb2\libc.a(lib_a-signal.o)
 .data          0x00000000        0x0 c:/arduino/hardware/tools/g++_arm_none_eabi/bin/../lib/gcc/arm-none-eabi/4.4.1/../../../../arm-none-eabi/lib/thumb2\libc.a(lib_a-signalr.o)
 .bss           0x00000000        0x0 c:/arduino/hardware/tools/g++_arm_none_eabi/bin/../lib/gcc/arm-none-eabi/4.4.1/../../../../arm-none-eabi/lib/thumb2\libc.a(lib_a-signalr.o)
 .data          0x00000000        0x0 c:/arduino/hardware/tools/g++_arm_none_eabi/bin/../lib/gcc/arm-none-eabi/4.4.1/../../../../arm-none-eabi/lib/thumb2\libc.a(lib_a-stdio.o)
 .bss           0x00000000        0x0 c:/arduino/hardware/tools/g++_arm_none_eabi/bin/../lib/gcc/arm-none-eabi/4.4.1/../../../../arm-none-eabi/lib/thumb2\libc.a(lib_a-stdio.o)
 .data          0x00000000        0x0 c:/arduino/hardware/tools/g++_arm_none_eabi/bin/../lib/gcc/arm-none-eabi/4.4.1/../../../../arm-none-eabi/lib/thumb2\libc.a(lib_a-writer.o)
 .bss           0x00000000        0x0 c:/arduino/hardware/tools/g++_arm_none_eabi/bin/../lib/gcc/arm-none-eabi/4.4.1/../../../../arm-none-eabi/lib/thumb2\libc.a(lib_a-writer.o)
 .text          0x00000000       0x5c c:/arduino/hardware/tools/g++_arm_none_eabi/bin/../lib/gcc/arm-none-eabi/4.4.1/../../../../arm-none-eabi/lib/thumb2\libc.a(lib_a-callocr.o)
 .data          0x00000000        0x0 c:/arduino/hardware/tools/g++_arm_none_eabi/bin/../lib/gcc/arm-none-eabi/4.4.1/../../../../arm-none-eabi/lib/thumb2\libc.a(lib_a-callocr.o)
 .bss           0x00000000        0x0 c:/arduino/hardware/tools/g++_arm_none_eabi/bin/../lib/gcc/arm-none-eabi/4.4.1/../../../../arm-none-eabi/lib/thumb2\libc.a(lib_a-callocr.o)
 .data          0x00000000        0x0 c:/arduino/hardware/tools/g++_arm_none_eabi/bin/../lib/gcc/arm-none-eabi/4.4.1/../../../../arm-none-eabi/lib/thumb2\libc.a(lib_a-closer.o)
 .bss           0x00000000        0x0 c:/arduino/hardware/tools/g++_arm_none_eabi/bin/../lib/gcc/arm-none-eabi/4.4.1/../../../../arm-none-eabi/lib/thumb2\libc.a(lib_a-closer.o)
 .data          0x00000000        0x0 c:/arduino/hardware/tools/g++_arm_none_eabi/bin/../lib/gcc/arm-none-eabi/4.4.1/../../../../arm-none-eabi/lib/thumb2\libc.a(lib_a-fclose.o)
 .bss           0x00000000        0x0 c:/arduino/hardware/tools/g++_arm_none_eabi/bin/../lib/gcc/arm-none-eabi/4.4.1/../../../../arm-none-eabi/lib/thumb2\libc.a(lib_a-fclose.o)
 .data          0x00000000        0x0 c:/arduino/hardware/tools/g++_arm_none_eabi/bin/../lib/gcc/arm-none-eabi/4.4.1/../../../../arm-none-eabi/lib/thumb2\libc.a(lib_a-fstatr.o)
 .bss           0x00000000        0x0 c:/arduino/hardware/tools/g++_arm_none_eabi/bin/../lib/gcc/arm-none-eabi/4.4.1/../../../../arm-none-eabi/lib/thumb2\libc.a(lib_a-fstatr.o)
 .data          0x00000000        0x0 c:/arduino/hardware/tools/g++_arm_none_eabi/bin/../lib/gcc/arm-none-eabi/4.4.1/../../../../arm-none-eabi/lib/thumb2\libc.a(lib_a-isattyr.o)
 .bss           0x00000000        0x0 c:/arduino/hardware/tools/g++_arm_none_eabi/bin/../lib/gcc/arm-none-eabi/4.4.1/../../../../arm-none-eabi/lib/thumb2\libc.a(lib_a-isattyr.o)
 .data          0x00000000        0x0 c:/arduino/hardware/tools/g++_arm_none_eabi/bin/../lib/gcc/arm-none-eabi/4.4.1/../../../../arm-none-eabi/lib/thumb2\libc.a(lib_a-lseekr.o)
 .bss           0x00000000        0x0 c:/arduino/hardware/tools/g++_arm_none_eabi/bin/../lib/gcc/arm-none-eabi/4.4.1/../../../../arm-none-eabi/lib/thumb2\libc.a(lib_a-lseekr.o)
 .data          0x00000000        0x0 c:/arduino/hardware/tools/g++_arm_none_eabi/bin/../lib/gcc/arm-none-eabi/4.4.1/../../../../arm-none-eabi/lib/thumb2\libc.a(lib_a-readr.o)
 .bss           0x00000000        0x0 c:/arduino/hardware/tools/g++_arm_none_eabi/bin/../lib/gcc/arm-none-eabi/4.4.1/../../../../arm-none-eabi/lib/thumb2\libc.a(lib_a-readr.o)
 .data          0x00000000        0x0 c:/arduino/hardware/tools/g++_arm_none_eabi/bin/../lib/gcc/arm-none-eabi/4.4.1/thumb2\libgcc.a(_udivsi3.o)
 .bss           0x00000000        0x0 c:/arduino/hardware/tools/g++_arm_none_eabi/bin/../lib/gcc/arm-none-eabi/4.4.1/thumb2\libgcc.a(_udivsi3.o)
 .data          0x00000000        0x0 c:/arduino/hardware/tools/g++_arm_none_eabi/bin/../lib/gcc/arm-none-eabi/4.4.1/thumb2\libgcc.a(_dvmd_tls.o)
 .bss           0x00000000        0x0 c:/arduino/hardware/tools/g++_arm_none_eabi/bin/../lib/gcc/arm-none-eabi/4.4.1/thumb2\libgcc.a(_dvmd_tls.o)
 .data          0x00000000        0x0 c:/arduino/hardware/tools/g++_arm_none_eabi/bin/../lib/gcc/arm-none-eabi/4.4.1/thumb2\libgcc.a(_aeabi_uldivmod.o)
 .bss           0x00000000        0x0 c:/arduino/hardware/tools/g++_arm_none_eabi/bin/../lib/gcc/arm-none-eabi/4.4.1/thumb2\libgcc.a(_aeabi_uldivmod.o)
 .data          0x00000000        0x0 c:/arduino/hardware/tools/g++_arm_none_eabi/bin/../lib/gcc/arm-none-eabi/4.4.1/thumb2\libgcc.a(bpabi.o)
 .bss           0x00000000        0x0 c:/arduino/hardware/tools/g++_arm_none_eabi/bin/../lib/gcc/arm-none-eabi/4.4.1/thumb2\libgcc.a(bpabi.o)
 .data          0x00000000        0x0 c:/arduino/hardware/tools/g++_arm_none_eabi/bin/../lib/gcc/arm-none-eabi/4.4.1/thumb2\libgcc.a(_divdi3.o)
 .bss           0x00000000        0x0 c:/arduino/hardware/tools/g++_arm_none_eabi/bin/../lib/gcc/arm-none-eabi/4.4.1/thumb2\libgcc.a(_divdi3.o)
 .ARM.extab     0x00000000        0x0 c:/arduino/hardware/tools/g++_arm_none_eabi/bin/../lib/gcc/arm-none-eabi/4.4.1/thumb2\libgcc.a(_divdi3.o)
 .data          0x00000000        0x0 c:/arduino/hardware/tools/g++_arm_none_eabi/bin/../lib/gcc/arm-none-eabi/4.4.1/thumb2\libgcc.a(_udivdi3.o)
 .bss           0x00000000        0x0 c:/arduino/hardware/tools/g++_arm_none_eabi/bin/../lib/gcc/arm-none-eabi/4.4.1/thumb2\libgcc.a(_udivdi3.o)
 .ARM.extab     0x00000000        0x0 c:/arduino/hardware/tools/g++_arm_none_eabi/bin/../lib/gcc/arm-none-eabi/4.4.1/thumb2\libgcc.a(_udivdi3.o)
 .text          0x00000000        0x0 c:/arduino/hardware/tools/g++_arm_none_eabi/bin/../lib/gcc/arm-none-eabi/4.4.1/thumb2/crtend.o
 .data          0x00000000        0x0 c:/arduino/hardware/tools/g++_arm_none_eabi/bin/../lib/gcc/arm-none-eabi/4.4.1/thumb2/crtend.o
 .bss           0x00000000        0x0 c:/arduino/hardware/tools/g++_arm_none_eabi/bin/../lib/gcc/arm-none-eabi/4.4.1/thumb2/crtend.o
 .jcr           0x00000000        0x4 c:/arduino/hardware/tools/g++_arm_none_eabi/bin/../lib/gcc/arm-none-eabi/4.4.1/thumb2/crtend.o
 .text          0x00000000        0x0 c:/arduino/hardware/tools/g++_arm_none_eabi/bin/../lib/gcc/arm-none-eabi/4.4.1/thumb2/crtn.o
 .data          0x00000000        0x0 c:/arduino/hardware/tools/g++_arm_none_eabi/bin/../lib/gcc/arm-none-eabi/4.4.1/thumb2/crtn.o
 .bss           0x00000000        0x0 c:/arduino/hardware/tools/g++_arm_none_eabi/bin/../lib/gcc/arm-none-eabi/4.4.1/thumb2/crtn.o

Memory Configuration

Name             Origin             Length             Attributes
rom              0x00080000         0x00080000         xr
sram0            0x20000000         0x00010000         xrw
sram1            0x20080000         0x00008000         xrw
ram              0x20070000         0x00018000         xrw
*default*        0x00000000         0xffffffff

Linker script and memory map

LOAD c:/arduino/hardware/tools/g++_arm_none_eabi/bin/../lib/gcc/arm-none-eabi/4.4.1/thumb2/crti.o
LOAD c:/arduino/hardware/tools/g++_arm_none_eabi/bin/../lib/gcc/arm-none-eabi/4.4.1/thumb2/crtbegin.o
LOAD c:/arduino/hardware/tools/g++_arm_none_eabi/bin/../lib/gcc/arm-none-eabi/4.4.1/thumb2\libgcc.a
START GROUP
LOAD C:/Users/jon_000/Git/ALFRED_TEST/Release/arduino/syscalls_sam3.c.o
LOAD ./ALFRED_TEST.cpp.o
LOAD ./Libraries/DueTimer/DueTimer.cpp.o
LOAD C:/Users/jon_000/Git/ALFRED_TEST/Release/arduino.ar
LOAD C:/Arduino/hardware/arduino/sam/variants/arduino_due_x/libsam_sam3x8e_gcc_rel.a
LOAD C:/Users/jon_000/Git/ALFRED_TEST/Release/arduino.ar
END GROUP
LOAD c:/arduino/hardware/tools/g++_arm_none_eabi/bin/../lib/gcc/arm-none-eabi/4.4.1/../../../../arm-none-eabi/lib/thumb2\libstdc++.a
LOAD c:/arduino/hardware/tools/g++_arm_none_eabi/bin/../lib/gcc/arm-none-eabi/4.4.1/../../../../arm-none-eabi/lib/thumb2\libm.a
START GROUP
LOAD c:/arduino/hardware/tools/g++_arm_none_eabi/bin/../lib/gcc/arm-none-eabi/4.4.1/thumb2\libgcc.a
LOAD c:/arduino/hardware/tools/g++_arm_none_eabi/bin/../lib/gcc/arm-none-eabi/4.4.1/../../../../arm-none-eabi/lib/thumb2\libc.a
END GROUP
LOAD c:/arduino/hardware/tools/g++_arm_none_eabi/bin/../lib/gcc/arm-none-eabi/4.4.1/thumb2/crtend.o
LOAD c:/arduino/hardware/tools/g++_arm_none_eabi/bin/../lib/gcc/arm-none-eabi/4.4.1/thumb2/crtn.o

.text           0x00080000     0x7520
                0x00080000                . = ALIGN (0x4)
                0x00080000                _sfixed = .
 *(.vectors .vectors.*)
 .vectors       0x00080000       0xf4 C:/Arduino/hardware/arduino/sam/variants/arduino_due_x/libsam_sam3x8e_gcc_rel.a(startup_sam3xa.o)
                0x00080000                exception_table
 *(.text .text.* .gnu.linkonce.t.*)
 .text          0x000800f4       0x30 c:/arduino/hardware/tools/g++_arm_none_eabi/bin/../lib/gcc/arm-none-eabi/4.4.1/thumb2/crtbegin.o
 .text._sbrk    0x00080124       0x20 C:/Users/jon_000/Git/ALFRED_TEST/Release/arduino/syscalls_sam3.c.o
                0x00080124                _sbrk
 .text._close   0x00080144        0x6 C:/Users/jon_000/Git/ALFRED_TEST/Release/arduino/syscalls_sam3.c.o
                0x00080144                _close
 .text._fstat   0x0008014a        0xa C:/Users/jon_000/Git/ALFRED_TEST/Release/arduino/syscalls_sam3.c.o
                0x0008014a                _fstat
 .text._isatty  0x00080154        0x4 C:/Users/jon_000/Git/ALFRED_TEST/Release/arduino/syscalls_sam3.c.o
                0x00080154                _isatty
 .text._lseek   0x00080158        0x4 C:/Users/jon_000/Git/ALFRED_TEST/Release/arduino/syscalls_sam3.c.o
                0x00080158                _lseek
 .text._read    0x0008015c        0x4 C:/Users/jon_000/Git/ALFRED_TEST/Release/arduino/syscalls_sam3.c.o
                0x0008015c                _read
 .text._write   0x00080160       0x20 C:/Users/jon_000/Git/ALFRED_TEST/Release/arduino/syscalls_sam3.c.o
                0x00080160                _write
 .text._kill    0x00080180        0x2 C:/Users/jon_000/Git/ALFRED_TEST/Release/arduino/syscalls_sam3.c.o
                0x00080180                _kill
 .text._getpid  0x00080182        0x6 C:/Users/jon_000/Git/ALFRED_TEST/Release/arduino/syscalls_sam3.c.o
                0x00080182                _getpid
 .text._exit    0x00080188       0x10 C:/Users/jon_000/Git/ALFRED_TEST/Release/arduino/syscalls_sam3.c.o
                0x00080188                _exit
 .text._Z12parseCommandPcPih
                0x00080198       0x7e ./ALFRED_TEST.cpp.o
                0x00080198                parseCommand(char*, int*, unsigned char)
 *fill*         0x00080216        0x2 00
 .text._Z5resetv
                0x00080218       0x18 ./ALFRED_TEST.cpp.o
                0x00080218                reset()
 .text._Z15timeout_handlerv
                0x00080230        0x4 ./ALFRED_TEST.cpp.o
                0x00080230                timeout_handler()
 .text.loop     0x00080234      0x120 ./ALFRED_TEST.cpp.o
                0x00080234                loop
 .text.setup    0x00080354       0x5c ./ALFRED_TEST.cpp.o
                0x00080354                setup
 .text._ZN8DueTimerC1Ei
                0x000803b0        0x4 ./Libraries/DueTimer/DueTimer.cpp.o
                0x000803b0                DueTimer::DueTimer(int)
 .text._ZN8DueTimer15attachInterruptEPFvvE
                0x000803b4       0x10 ./Libraries/DueTimer/DueTimer.cpp.o
                0x000803b4                DueTimer::attachInterrupt(void (*)())
 *fill*         0x000803c4        0x4 00
 .text._ZN8DueTimer9bestClockEdRm
                0x000803c8      0x1a0 ./Libraries/DueTimer/DueTimer.cpp.o
                0x000803c8                DueTimer::bestClock(double, unsigned long&)
 .text.TC8_Handler
                0x00080568       0x1c ./Libraries/DueTimer/DueTimer.cpp.o
                0x00080568                TC8_Handler
 .text.TC7_Handler
                0x00080584       0x1c ./Libraries/DueTimer/DueTimer.cpp.o
                0x00080584                TC7_Handler
 .text.TC6_Handler
                0x000805a0       0x1c ./Libraries/DueTimer/DueTimer.cpp.o
                0x000805a0                TC6_Handler
 .text.TC5_Handler
                0x000805bc       0x1c ./Libraries/DueTimer/DueTimer.cpp.o
                0x000805bc                TC5_Handler
 .text.TC4_Handler
                0x000805d8       0x1c ./Libraries/DueTimer/DueTimer.cpp.o
                0x000805d8                TC4_Handler
 .text.TC3_Handler
                0x000805f4       0x1c ./Libraries/DueTimer/DueTimer.cpp.o
                0x000805f4                TC3_Handler
 .text.TC2_Handler
                0x00080610       0x1c ./Libraries/DueTimer/DueTimer.cpp.o
                0x00080610                TC2_Handler
 .text.TC1_Handler
                0x0008062c       0x1c ./Libraries/DueTimer/DueTimer.cpp.o
                0x0008062c                TC1_Handler
 .text.TC0_Handler
                0x00080648       0x1c ./Libraries/DueTimer/DueTimer.cpp.o
                0x00080648                TC0_Handler
 .text._ZN8DueTimer12setFrequencyEd
                0x00080664       0x98 ./Libraries/DueTimer/DueTimer.cpp.o
                0x00080664                DueTimer::setFrequency(double)
 *fill*         0x000806fc        0x4 00
 .text._ZN8DueTimer9setPeriodEl
                0x00080700       0x30 ./Libraries/DueTimer/DueTimer.cpp.o
                0x00080700                DueTimer::setPeriod(long)
 .text._ZN8DueTimer4stopEv
                0x00080730       0x44 ./Libraries/DueTimer/DueTimer.cpp.o
                0x00080730                DueTimer::stop()
 .text._ZN8DueTimer5startEl
                0x00080774       0x74 ./Libraries/DueTimer/DueTimer.cpp.o
                0x00080774                DueTimer::start(long)
 .text._GLOBAL__I__ZN8DueTimer6TimersE
                0x000807e8       0x80 ./Libraries/DueTimer/DueTimer.cpp.o
 .text._Z11serialEventv
                0x00080868        0x2 C:/Users/jon_000/Git/ALFRED_TEST/Release/arduino.ar(variant.cpp.o)
                0x00080868                serialEvent()
 .text._Z12serialEvent1v
                0x0008086a        0x2 C:/Users/jon_000/Git/ALFRED_TEST/Release/arduino.ar(variant.cpp.o)
                0x0008086a                serialEvent1()
 .text._Z12serialEvent2v
                0x0008086c        0x2 C:/Users/jon_000/Git/ALFRED_TEST/Release/arduino.ar(variant.cpp.o)
                0x0008086c                serialEvent2()
 .text._Z12serialEvent3v
                0x0008086e        0x2 C:/Users/jon_000/Git/ALFRED_TEST/Release/arduino.ar(variant.cpp.o)
                0x0008086e                serialEvent3()
 .text.init     0x00080870      0x134 C:/Users/jon_000/Git/ALFRED_TEST/Release/arduino.ar(variant.cpp.o)
                0x00080870                init
 .text._Z14serialEventRunv
                0x000809a4       0x48 C:/Users/jon_000/Git/ALFRED_TEST/Release/arduino.ar(variant.cpp.o)
                0x000809a4                serialEventRun()
 .text.USART3_Handler
                0x000809ec        0xc C:/Users/jon_000/Git/ALFRED_TEST/Release/arduino.ar(variant.cpp.o)
                0x000809ec                USART3_Handler
 .text.USART1_Handler
                0x000809f8        0xc C:/Users/jon_000/Git/ALFRED_TEST/Release/arduino.ar(variant.cpp.o)
                0x000809f8                USART1_Handler
 .text.USART0_Handler
                0x00080a04        0xc C:/Users/jon_000/Git/ALFRED_TEST/Release/arduino.ar(variant.cpp.o)
                0x00080a04                USART0_Handler
 .text.UART_Handler
                0x00080a10        0xc C:/Users/jon_000/Git/ALFRED_TEST/Release/arduino.ar(variant.cpp.o)
                0x00080a10                UART_Handler
 .text._GLOBAL__I_g_APinDescription
                0x00080a1c       0x8c C:/Users/jon_000/Git/ALFRED_TEST/Release/arduino.ar(variant.cpp.o)
 .text._ZN5Print5writeEPKhj
                0x00080aa8       0x2e C:/Users/jon_000/Git/ALFRED_TEST/Release/arduino.ar(Print.cpp.o)
                0x00080aa8                Print::write(unsigned char const*, unsigned int)
 .text._ZN5Print5printEc
                0x00080ad6        0xa C:/Users/jon_000/Git/ALFRED_TEST/Release/arduino.ar(Print.cpp.o)
                0x00080ad6                Print::print(char)
 .text._ZN5Print7printlnEv
                0x00080ae0       0x18 C:/Users/jon_000/Git/ALFRED_TEST/Release/arduino.ar(Print.cpp.o)
                0x00080ae0                Print::println()
 .text._ZN5Print5writeEPKc
                0x00080af8       0x20 C:/Users/jon_000/Git/ALFRED_TEST/Release/arduino.ar(Print.cpp.o)
                0x00080af8                Print::write(char const*)
 .text._ZN5Print11printNumberEmh
                0x00080b18       0x3e C:/Users/jon_000/Git/ALFRED_TEST/Release/arduino.ar(Print.cpp.o)
                0x00080b18                Print::printNumber(unsigned long, unsigned char)
 .text._ZN5Print5printEli
                0x00080b56       0x42 C:/Users/jon_000/Git/ALFRED_TEST/Release/arduino.ar(Print.cpp.o)
                0x00080b56                Print::print(long, int)
 .text._ZN5Print5printEii
                0x00080b98        0x4 C:/Users/jon_000/Git/ALFRED_TEST/Release/arduino.ar(Print.cpp.o)
                0x00080b98                Print::print(int, int)
 .text._ZN5Print7printlnEii
                0x00080b9c       0x14 C:/Users/jon_000/Git/ALFRED_TEST/Release/arduino.ar(Print.cpp.o)
                0x00080b9c                Print::println(int, int)
 .text._ZN5Print5printEPKc
                0x00080bb0        0x4 C:/Users/jon_000/Git/ALFRED_TEST/Release/arduino.ar(Print.cpp.o)
                0x00080bb0                Print::print(char const*)
 .text._ZN5Print7printlnEPKc
                0x00080bb4       0x14 C:/Users/jon_000/Git/ALFRED_TEST/Release/arduino.ar(Print.cpp.o)
                0x00080bb4                Print::println(char const*)
 .text._ZN10RingBuffer10store_charEh
                0x00080bc8       0x16 C:/Users/jon_000/Git/ALFRED_TEST/Release/arduino.ar(RingBuffer.cpp.o)
                0x00080bc8                RingBuffer::store_char(unsigned char)
 .text._ZN10RingBufferC1Ev
                0x00080bde       0x16 C:/Users/jon_000/Git/ALFRED_TEST/Release/arduino.ar(RingBuffer.cpp.o)
                0x00080bde                RingBuffer::RingBuffer()
 .text._ZN6Stream9timedReadEv
                0x00080bf4       0x2a C:/Users/jon_000/Git/ALFRED_TEST/Release/arduino.ar(Stream.cpp.o)
                0x00080bf4                Stream::timedRead()
 .text._ZN6Stream14readBytesUntilEcPcj
                0x00080c1e       0x38 C:/Users/jon_000/Git/ALFRED_TEST/Release/arduino.ar(Stream.cpp.o)
                0x00080c1e                Stream::readBytesUntil(char, char*, unsigned int)
 .text._ZN9UARTClasscvbEv
                0x00080c56        0x4 C:/Users/jon_000/Git/ALFRED_TEST/Release/arduino.ar(UARTClass.cpp.o)
                0x00080c56                UARTClass::operator bool()
 *fill*         0x00080c5a        0x2 00
 .text._ZN9UARTClassC1EP4Uart4IRQnmP10RingBuffer
                0x00080c5c       0x24 C:/Users/jon_000/Git/ALFRED_TEST/Release/arduino.ar(UARTClass.cpp.o)
                0x00080c5c                UARTClass::UARTClass(Uart*, IRQn, unsigned long, RingBuffer*)
 .text._ZN9UARTClass9availableEv
                0x00080c80        0xe C:/Users/jon_000/Git/ALFRED_TEST/Release/arduino.ar(UARTClass.cpp.o)
                0x00080c80                UARTClass::available()
 .text._ZN9UARTClass4peekEv
                0x00080c8e       0x12 C:/Users/jon_000/Git/ALFRED_TEST/Release/arduino.ar(UARTClass.cpp.o)
                0x00080c8e                UARTClass::peek()
 .text._ZN9UARTClass4readEv
                0x00080ca0       0x1c C:/Users/jon_000/Git/ALFRED_TEST/Release/arduino.ar(UARTClass.cpp.o)
                0x00080ca0                UARTClass::read()
 .text._ZN9UARTClass5flushEv
                0x00080cbc        0xc C:/Users/jon_000/Git/ALFRED_TEST/Release/arduino.ar(UARTClass.cpp.o)
                0x00080cbc                UARTClass::flush()
 .text._ZN9UARTClass5writeEh
                0x00080cc8       0x10 C:/Users/jon_000/Git/ALFRED_TEST/Release/arduino.ar(UARTClass.cpp.o)
                0x00080cc8                UARTClass::write(unsigned char)
 .text._ZN9UARTClass10IrqHandlerEv
                0x00080cd8       0x2a C:/Users/jon_000/Git/ALFRED_TEST/Release/arduino.ar(UARTClass.cpp.o)
                0x00080cd8                UARTClass::IrqHandler()
 *fill*         0x00080d02        0x2 00
 .text._ZN9UARTClass5beginEm
                0x00080d04       0x5c C:/Users/jon_000/Git/ALFRED_TEST/Release/arduino.ar(UARTClass.cpp.o)
                0x00080d04                UARTClass::begin(unsigned long)
 .text._ZN10USARTClasscvbEv
                0x00080d60        0x4 C:/Users/jon_000/Git/ALFRED_TEST/Release/arduino.ar(USARTClass.cpp.o)
                0x00080d60                USARTClass::operator bool()
 .text._ZN10USARTClassC1EP5Usart4IRQnmP10RingBuffer
                0x00080d64       0x24 C:/Users/jon_000/Git/ALFRED_TEST/Release/arduino.ar(USARTClass.cpp.o)
                0x00080d64                USARTClass::USARTClass(Usart*, IRQn, unsigned long, RingBuffer*)
 .text._ZN10USARTClass9availableEv
                0x00080d88        0xe C:/Users/jon_000/Git/ALFRED_TEST/Release/arduino.ar(USARTClass.cpp.o)
                0x00080d88                USARTClass::available()
 .text._ZN10USARTClass4peekEv
                0x00080d96       0x12 C:/Users/jon_000/Git/ALFRED_TEST/Release/arduino.ar(USARTClass.cpp.o)
                0x00080d96                USARTClass::peek()
 .text._ZN10USARTClass4readEv
                0x00080da8       0x1c C:/Users/jon_000/Git/ALFRED_TEST/Release/arduino.ar(USARTClass.cpp.o)
                0x00080da8                USARTClass::read()
 .text._ZN10USARTClass5flushEv
                0x00080dc4        0xc C:/Users/jon_000/Git/ALFRED_TEST/Release/arduino.ar(USARTClass.cpp.o)
                0x00080dc4                USARTClass::flush()
 .text._ZN10USARTClass5writeEh
                0x00080dd0       0x10 C:/Users/jon_000/Git/ALFRED_TEST/Release/arduino.ar(USARTClass.cpp.o)
                0x00080dd0                USARTClass::write(unsigned char)
 .text._ZN10USARTClass10IrqHandlerEv
                0x00080de0       0x2a C:/Users/jon_000/Git/ALFRED_TEST/Release/arduino.ar(USARTClass.cpp.o)
                0x00080de0                USARTClass::IrqHandler()
 *fill*         0x00080e0a        0x2 00
 .text._ZN10USARTClass5beginEm
                0x00080e0c       0x5c C:/Users/jon_000/Git/ALFRED_TEST/Release/arduino.ar(USARTClass.cpp.o)
                0x00080e0c                USARTClass::begin(unsigned long)
 .text.millis   0x00080e68        0x4 C:/Users/jon_000/Git/ALFRED_TEST/Release/arduino.ar(wiring.c.o)
                0x00080e68                millis
 .text.delay    0x00080e6c       0x1a C:/Users/jon_000/Git/ALFRED_TEST/Release/arduino.ar(wiring.c.o)
                0x00080e6c                delay
 *fill*         0x00080e86        0x2 00
 .text.analogOutputInit
                0x00080e88       0x14 C:/Users/jon_000/Git/ALFRED_TEST/Release/arduino.ar(wiring_analog.c.o)
                0x00080e88                analogOutputInit
 .text.digitalWrite
                0x00080e9c       0x48 C:/Users/jon_000/Git/ALFRED_TEST/Release/arduino.ar(wiring_digital.c.o)
                0x00080e9c                digitalWrite
 .text.pinMode  0x00080ee4       0x68 C:/Users/jon_000/Git/ALFRED_TEST/Release/arduino.ar(wiring_digital.c.o)
                0x00080ee4                pinMode
 .text.__empty  0x00080f4c        0x2 C:/Users/jon_000/Git/ALFRED_TEST/Release/arduino.ar(hooks.c.o)
                0x00080f4c                yield
 .text.__false  0x00080f4e        0x4 C:/Users/jon_000/Git/ALFRED_TEST/Release/arduino.ar(hooks.c.o)
                0x00080f4e                sysTickHook
 .text.__halt   0x00080f52        0x2 C:/Users/jon_000/Git/ALFRED_TEST/Release/arduino.ar(hooks.c.o)
                0x00080f52                svcHook
                0x00080f52                pendSVHook
 .text.PIO_DisableInterrupt
                0x00080f54        0x4 C:/Arduino/hardware/arduino/sam/variants/arduino_due_x/libsam_sam3x8e_gcc_rel.a(pio.o)
                0x00080f54                PIO_DisableInterrupt
 .text.PIO_PullUp
                0x00080f58        0xa C:/Arduino/hardware/arduino/sam/variants/arduino_due_x/libsam_sam3x8e_gcc_rel.a(pio.o)
                0x00080f58                PIO_PullUp
 .text.PIO_SetPeripheral
                0x00080f62       0x2a C:/Arduino/hardware/arduino/sam/variants/arduino_due_x/libsam_sam3x8e_gcc_rel.a(pio.o)
                0x00080f62                PIO_SetPeripheral
 .text.PIO_SetInput
                0x00080f8c       0x40 C:/Arduino/hardware/arduino/sam/variants/arduino_due_x/libsam_sam3x8e_gcc_rel.a(pio.o)
                0x00080f8c                PIO_SetInput
 .text.PIO_SetOutput
                0x00080fcc       0x38 C:/Arduino/hardware/arduino/sam/variants/arduino_due_x/libsam_sam3x8e_gcc_rel.a(pio.o)
                0x00080fcc                PIO_SetOutput
 .text.PIO_Configure
                0x00081004       0x74 C:/Arduino/hardware/arduino/sam/variants/arduino_due_x/libsam_sam3x8e_gcc_rel.a(pio.o)
                0x00081004                PIO_Configure
 .text.PIO_GetOutputDataStatus
                0x00081078       0x16 C:/Arduino/hardware/arduino/sam/variants/arduino_due_x/libsam_sam3x8e_gcc_rel.a(pio.o)
                0x00081078                PIO_GetOutputDataStatus
 *fill*         0x0008108e        0x2 00
 .text.pmc_enable_upll_clock
                0x00081090       0x18 C:/Arduino/hardware/arduino/sam/variants/arduino_due_x/libsam_sam3x8e_gcc_rel.a(pmc.o)
                0x00081090                pmc_enable_upll_clock
 .text.pmc_enable_periph_clk
                0x000810a8       0x48 C:/Arduino/hardware/arduino/sam/variants/arduino_due_x/libsam_sam3x8e_gcc_rel.a(pmc.o)
                0x000810a8                pmc_enable_periph_clk
 .text.pmc_disable_periph_clk
                0x000810f0       0x48 C:/Arduino/hardware/arduino/sam/variants/arduino_due_x/libsam_sam3x8e_gcc_rel.a(pmc.o)
                0x000810f0                pmc_disable_periph_clk
 .text.pmc_switch_udpck_to_upllck
                0x00081138       0x14 C:/Arduino/hardware/arduino/sam/variants/arduino_due_x/libsam_sam3x8e_gcc_rel.a(pmc.o)
                0x00081138                pmc_switch_udpck_to_upllck
 .text.pmc_enable_udpck
                0x0008114c        0xc C:/Arduino/hardware/arduino/sam/variants/arduino_due_x/libsam_sam3x8e_gcc_rel.a(pmc.o)
                0x0008114c                pmc_enable_udpck
 .text.pmc_set_writeprotect
                0x00081158       0x1c C:/Arduino/hardware/arduino/sam/variants/arduino_due_x/libsam_sam3x8e_gcc_rel.a(pmc.o)
                0x00081158                pmc_set_writeprotect
 .text.TC_Configure
                0x00081174       0x38 C:/Arduino/hardware/arduino/sam/variants/arduino_due_x/libsam_sam3x8e_gcc_rel.a(tc.o)
                0x00081174                TC_Configure
 .text.TC_Start
                0x000811ac       0x2c C:/Arduino/hardware/arduino/sam/variants/arduino_due_x/libsam_sam3x8e_gcc_rel.a(tc.o)
                0x000811ac                TC_Start
 .text.TC_Stop  0x000811d8       0x2c C:/Arduino/hardware/arduino/sam/variants/arduino_due_x/libsam_sam3x8e_gcc_rel.a(tc.o)
                0x000811d8                TC_Stop
 .text.TC_GetStatus
                0x00081204        0x8 C:/Arduino/hardware/arduino/sam/variants/arduino_due_x/libsam_sam3x8e_gcc_rel.a(tc.o)
                0x00081204                TC_GetStatus
 .text.TC_SetRC
                0x0008120c        0x8 C:/Arduino/hardware/arduino/sam/variants/arduino_due_x/libsam_sam3x8e_gcc_rel.a(tc.o)
                0x0008120c                TC_SetRC
 .text.TimeTick_Increment
                0x00081214       0x10 C:/Arduino/hardware/arduino/sam/variants/arduino_due_x/libsam_sam3x8e_gcc_rel.a(timetick.o)
                0x00081214                TimeTick_Increment
 .text.GetTickCount
                0x00081224        0xc C:/Arduino/hardware/arduino/sam/variants/arduino_due_x/libsam_sam3x8e_gcc_rel.a(timetick.o)
                0x00081224                GetTickCount
 .text.WDT_Disable
                0x00081230        0x8 C:/Arduino/hardware/arduino/sam/variants/arduino_due_x/libsam_sam3x8e_gcc_rel.a(wdt.o)
                0x00081230                WDT_Disable
 .text.SystemInit
                0x00081238       0x9c C:/Arduino/hardware/arduino/sam/variants/arduino_due_x/libsam_sam3x8e_gcc_rel.a(system_sam3xa.o)
                0x00081238                SystemInit
 .text.Reset_Handler
                0x000812d4       0x70 C:/Arduino/hardware/arduino/sam/variants/arduino_due_x/libsam_sam3x8e_gcc_rel.a(startup_sam3xa.o)
                0x000812d4                Reset_Handler
 .text.adc_init
                0x00081344       0xa0 C:/Arduino/hardware/arduino/sam/variants/arduino_due_x/libsam_sam3x8e_gcc_rel.a(adc.o)
                0x00081344                adc_init
 .text.adc_configure_trigger
                0x000813e4       0x10 C:/Arduino/hardware/arduino/sam/variants/arduino_due_x/libsam_sam3x8e_gcc_rel.a(adc.o)
                0x000813e4                adc_configure_trigger
 .text.adc_configure_timing
                0x000813f4       0x1a C:/Arduino/hardware/arduino/sam/variants/arduino_due_x/libsam_sam3x8e_gcc_rel.a(adc.o)
                0x000813f4                adc_configure_timing
 .text.adc_disable_all_channel
                0x0008140e        0x8 C:/Arduino/hardware/arduino/sam/variants/arduino_due_x/libsam_sam3x8e_gcc_rel.a(adc.o)
                0x0008140e                adc_disable_all_channel
 .text.adc_disable_interrupt
                0x00081416        0x4 C:/Arduino/hardware/arduino/sam/variants/arduino_due_x/libsam_sam3x8e_gcc_rel.a(adc.o)
                0x00081416                adc_disable_interrupt
 *fill*         0x0008141a        0x2 00
 .text.UOTGHS_Handler
                0x0008141c       0x10 C:/Arduino/hardware/arduino/sam/variants/arduino_due_x/libsam_sam3x8e_gcc_rel.a(uotghs.o)
                0x0008141c                UOTGHS_Handler
 .text.PIOA_Handler
                0x0008142c       0x2c C:/Users/jon_000/Git/ALFRED_TEST/Release/arduino.ar(WInterrupts.c.o)
                0x0008142c                PIOA_Handler
 .text.PIOB_Handler
                0x00081458       0x2c C:/Users/jon_000/Git/ALFRED_TEST/Release/arduino.ar(WInterrupts.c.o)
                0x00081458                PIOB_Handler
 .text.PIOC_Handler
                0x00081484       0x2c C:/Users/jon_000/Git/ALFRED_TEST/Release/arduino.ar(WInterrupts.c.o)
                0x00081484                PIOC_Handler
 .text.PIOD_Handler
                0x000814b0       0x2c C:/Users/jon_000/Git/ALFRED_TEST/Release/arduino.ar(WInterrupts.c.o)
                0x000814b0                PIOD_Handler
 .text.__halt   0x000814dc        0x2 C:/Users/jon_000/Git/ALFRED_TEST/Release/arduino.ar(cortex_handlers.c.o)
                0x000814dc                DACC_Handler
                0x000814dc                DebugMon_Handler
                0x000814dc                DMAC_Handler
                0x000814dc                TRNG_Handler
                0x000814dc                HardFault_Handler
                0x000814dc                TWI1_Handler
                0x000814dc                NMI_Handler
                0x000814dc                ADC_Handler
                0x000814dc                SMC_Handler
                0x000814dc                RTT_Handler
                0x000814dc                EFC1_Handler
                0x000814dc                RTC_Handler
                0x000814dc                UsageFault_Handler
                0x000814dc                WDT_Handler
                0x000814dc                CAN0_Handler
                0x000814dc                HSMCI_Handler
                0x000814dc                TWI0_Handler
                0x000814dc                SSC_Handler
                0x000814dc                EFC0_Handler
                0x000814dc                PMC_Handler
                0x000814dc                PWM_Handler
                0x000814dc                CAN1_Handler
                0x000814dc                MemManage_Handler
                0x000814dc                SUPC_Handler
                0x000814dc                USART2_Handler
                0x000814dc                EMAC_Handler
                0x000814dc                BusFault_Handler
                0x000814dc                RSTC_Handler
                0x000814dc                SPI0_Handler
 .text.SysTick_Handler
                0x000814de       0x16 C:/Users/jon_000/Git/ALFRED_TEST/Release/arduino.ar(cortex_handlers.c.o)
                0x000814de                SysTick_Handler
 .text.PendSV_Handler
                0x000814f4        0x4 C:/Users/jon_000/Git/ALFRED_TEST/Release/arduino.ar(cortex_handlers.c.o)
                0x000814f4                PendSV_Handler
 .text.SVC_Handler
                0x000814f8        0x4 C:/Users/jon_000/Git/ALFRED_TEST/Release/arduino.ar(cortex_handlers.c.o)
                0x000814f8                SVC_Handler
 .text.main     0x000814fc       0x30 C:/Users/jon_000/Git/ALFRED_TEST/Release/arduino.ar(main.cpp.o)
                0x000814fc                main
 .text._Z16USBD_InitControli
                0x0008152c       0x14 C:/Users/jon_000/Git/ALFRED_TEST/Release/arduino.ar(USBCore.cpp.o)
                0x0008152c                USBD_InitControl(int)
 .text._ZL11USB_SendZlpv
                0x00081540       0x24 C:/Users/jon_000/Git/ALFRED_TEST/Release/arduino.ar(USBCore.cpp.o)
 .text._ZN10USBDevice_6attachEv
                0x00081564       0x20 C:/Users/jon_000/Git/ALFRED_TEST/Release/arduino.ar(USBCore.cpp.o)
                0x00081564                USBDevice_::attach()
 .text._ZN10USBDevice_C1Ev
                0x00081584       0x24 C:/Users/jon_000/Git/ALFRED_TEST/Release/arduino.ar(USBCore.cpp.o)
                0x00081584                USBDevice_::USBDevice_()
 .text._Z14USBD_Availablem
                0x000815a8       0x2c C:/Users/jon_000/Git/ALFRED_TEST/Release/arduino.ar(USBCore.cpp.o)
                0x000815a8                USBD_Available(unsigned long)
 .text._Z10USBD_Flushm
                0x000815d4       0x16 C:/Users/jon_000/Git/ALFRED_TEST/Release/arduino.ar(USBCore.cpp.o)
                0x000815d4                USBD_Flush(unsigned long)
 .text._Z24USBD_SendOtherInterfacesv
                0x000815ea       0x1c C:/Users/jon_000/Git/ALFRED_TEST/Release/arduino.ar(USBCore.cpp.o)
                0x000815ea                USBD_SendOtherInterfaces()
 .text._Z19USBD_SendInterfacesv
                0x00081606       0x1c C:/Users/jon_000/Git/ALFRED_TEST/Release/arduino.ar(USBCore.cpp.o)
                0x00081606                USBD_SendInterfaces()
 .text._Z26USBD_ClassInterfaceRequestR5Setup
                0x00081622       0x14 C:/Users/jon_000/Git/ALFRED_TEST/Release/arduino.ar(USBCore.cpp.o)
                0x00081622                USBD_ClassInterfaceRequest(Setup&)
 .text._Z16USBD_RecvControlPvm
                0x00081636       0x1c C:/Users/jon_000/Git/ALFRED_TEST/Release/arduino.ar(USBCore.cpp.o)
                0x00081636                USBD_RecvControl(void*, unsigned long)
 *fill*         0x00081652        0x2 00
 .text._Z16USBD_SendControlhPKvm
                0x00081654       0x40 C:/Users/jon_000/Git/ALFRED_TEST/Release/arduino.ar(USBCore.cpp.o)
                0x00081654                USBD_SendControl(unsigned char, void const*, unsigned long)
 .text._ZL24USB_SendStringDescriptorPKhi
                0x00081694       0x42 C:/Users/jon_000/Git/ALFRED_TEST/Release/arduino.ar(USBCore.cpp.o)
 *fill*         0x000816d6        0x2 00
 .text._ZL7USB_ISRv
                0x000816d8      0x438 C:/Users/jon_000/Git/ALFRED_TEST/Release/arduino.ar(USBCore.cpp.o)
 .text._Z9USBD_SendmPKvm
                0x00081b10       0x4c C:/Users/jon_000/Git/ALFRED_TEST/Release/arduino.ar(USBCore.cpp.o)
                0x00081b10                USBD_Send(unsigned long, void const*, unsigned long)
 .text._Z9USBD_RecvmPvm
                0x00081b5c       0x7c C:/Users/jon_000/Git/ALFRED_TEST/Release/arduino.ar(USBCore.cpp.o)
                0x00081b5c                USBD_Recv(unsigned long, void*, unsigned long)
 .text._Z9USBD_Recvm
                0x00081bd8       0x1e C:/Users/jon_000/Git/ALFRED_TEST/Release/arduino.ar(USBCore.cpp.o)
                0x00081bd8                USBD_Recv(unsigned long)
 *fill*         0x00081bf6        0x2 00
 .text._GLOBAL__I_TxLEDPulse
                0x00081bf8        0xc C:/Users/jon_000/Git/ALFRED_TEST/Release/arduino.ar(USBCore.cpp.o)
 .text.initiateReset
                0x00081c04        0xc C:/Users/jon_000/Git/ALFRED_TEST/Release/arduino.ar(Reset.cpp.o)
                0x00081c04                initiateReset
 .text.cancelReset
                0x00081c10       0x10 C:/Users/jon_000/Git/ALFRED_TEST/Release/arduino.ar(Reset.cpp.o)
                0x00081c10                cancelReset
 .text.tickReset
                0x00081c20       0x20 C:/Users/jon_000/Git/ALFRED_TEST/Release/arduino.ar(Reset.cpp.o)
                0x00081c20                tickReset
 .text._ZN7Serial_9availableEv
                0x00081c40       0x18 C:/Users/jon_000/Git/ALFRED_TEST/Release/arduino.ar(CDC.cpp.o)
                0x00081c40                Serial_::available()
 .text._ZN7Serial_4peekEv
                0x00081c58       0x20 C:/Users/jon_000/Git/ALFRED_TEST/Release/arduino.ar(CDC.cpp.o)
                0x00081c58                Serial_::peek()
 .text._ZN7Serial_5writeEh
                0x00081c78       0x14 C:/Users/jon_000/Git/ALFRED_TEST/Release/arduino.ar(CDC.cpp.o)
                0x00081c78                Serial_::write(unsigned char)
 .text._ZN7Serial_5writeEPKhj
                0x00081c8c       0x28 C:/Users/jon_000/Git/ALFRED_TEST/Release/arduino.ar(CDC.cpp.o)
                0x00081c8c                Serial_::write(unsigned char const*, unsigned int)
 .text._ZN7Serial_5flushEv
                0x00081cb4        0x6 C:/Users/jon_000/Git/ALFRED_TEST/Release/arduino.ar(CDC.cpp.o)
                0x00081cb4                Serial_::flush()
 *fill*         0x00081cba        0x2 00
 .text._ZN7Serial_4readEv
                0x00081cbc       0x44 C:/Users/jon_000/Git/ALFRED_TEST/Release/arduino.ar(CDC.cpp.o)
                0x00081cbc                Serial_::read()
 .text._ZN7Serial_6acceptEv
                0x00081d00       0x6c C:/Users/jon_000/Git/ALFRED_TEST/Release/arduino.ar(CDC.cpp.o)
                0x00081d00                Serial_::accept()
 .text._Z21CDC_GetOtherInterfacePh
                0x00081d6c       0x14 C:/Users/jon_000/Git/ALFRED_TEST/Release/arduino.ar(CDC.cpp.o)
                0x00081d6c                CDC_GetOtherInterface(unsigned char*)
 .text._Z16CDC_GetInterfacePh
                0x00081d80       0x14 C:/Users/jon_000/Git/ALFRED_TEST/Release/arduino.ar(CDC.cpp.o)
                0x00081d80                CDC_GetInterface(unsigned char*)
 .text._Z9CDC_SetupR5Setup
                0x00081d94       0x60 C:/Users/jon_000/Git/ALFRED_TEST/Release/arduino.ar(CDC.cpp.o)
                0x00081d94                CDC_Setup(Setup&)
 .text._GLOBAL__I_cdc_rx_buffer
                0x00081df4       0x1c C:/Users/jon_000/Git/ALFRED_TEST/Release/arduino.ar(CDC.cpp.o)
 .text._Z9HID_SetupR5Setup
                0x00081e10       0x44 C:/Users/jon_000/Git/ALFRED_TEST/Release/arduino.ar(HID.cpp.o)
                0x00081e10                HID_Setup(Setup&)
 .text._ZN6Mouse_C1Ev
                0x00081e54        0x6 C:/Users/jon_000/Git/ALFRED_TEST/Release/arduino.ar(HID.cpp.o)
                0x00081e54                Mouse_::Mouse_()
 *fill*         0x00081e5a        0x2 00
 .text._ZN9Keyboard_C1Ev
                0x00081e5c       0x10 C:/Users/jon_000/Git/ALFRED_TEST/Release/arduino.ar(HID.cpp.o)
                0x00081e5c                Keyboard_::Keyboard_()
 .text._ZN9Keyboard_5writeEh
                0x00081e6c       0x1c C:/Users/jon_000/Git/ALFRED_TEST/Release/arduino.ar(HID.cpp.o)
                0x00081e6c                Keyboard_::write(unsigned char)
 .text._Z14HID_SendReporthPKvm
                0x00081e88       0x2c C:/Users/jon_000/Git/ALFRED_TEST/Release/arduino.ar(HID.cpp.o)
                0x00081e88                HID_SendReport(unsigned char, void const*, unsigned long)
 .text._ZN9Keyboard_10sendReportEP9KeyReport
                0x00081eb4        0x8 C:/Users/jon_000/Git/ALFRED_TEST/Release/arduino.ar(HID.cpp.o)
                0x00081eb4                Keyboard_::sendReport(KeyReport*)
 .text._ZN9Keyboard_10releaseAllEv
                0x00081ebc       0x18 C:/Users/jon_000/Git/ALFRED_TEST/Release/arduino.ar(HID.cpp.o)
                0x00081ebc                Keyboard_::releaseAll()
 .text._ZN9Keyboard_7releaseEh
                0x00081ed4       0x74 C:/Users/jon_000/Git/ALFRED_TEST/Release/arduino.ar(HID.cpp.o)
                0x00081ed4                Keyboard_::release(unsigned char)
 .text._ZN9Keyboard_5pressEh
                0x00081f48       0x9c C:/Users/jon_000/Git/ALFRED_TEST/Release/arduino.ar(HID.cpp.o)
                0x00081f48                Keyboard_::press(unsigned char)
 .text._Z17HID_GetDescriptori
                0x00081fe4       0x10 C:/Users/jon_000/Git/ALFRED_TEST/Release/arduino.ar(HID.cpp.o)
                0x00081fe4                HID_GetDescriptor(int)
 .text._Z16HID_GetInterfacePh
                0x00081ff4       0x14 C:/Users/jon_000/Git/ALFRED_TEST/Release/arduino.ar(HID.cpp.o)
                0x00081ff4                HID_GetInterface(unsigned char*)
 .text._GLOBAL__I_Mouse
                0x00082008       0x1c C:/Users/jon_000/Git/ALFRED_TEST/Release/arduino.ar(HID.cpp.o)
 .text.UDD_SetStack
                0x00082024        0xc C:/Arduino/hardware/arduino/sam/variants/arduino_due_x/libsam_sam3x8e_gcc_rel.a(uotghs_device.o)
                0x00082024                UDD_SetStack
 .text.UDD_Init
                0x00082030       0xd0 C:/Arduino/hardware/arduino/sam/variants/arduino_due_x/libsam_sam3x8e_gcc_rel.a(uotghs_device.o)
                0x00082030                UDD_Init
 .text.UDD_Attach
                0x00082100       0x4c C:/Arduino/hardware/arduino/sam/variants/arduino_due_x/libsam_sam3x8e_gcc_rel.a(uotghs_device.o)
                0x00082100                UDD_Attach
 .text.UDD_InitEP
                0x0008214c       0x30 C:/Arduino/hardware/arduino/sam/variants/arduino_due_x/libsam_sam3x8e_gcc_rel.a(uotghs_device.o)
                0x0008214c                UDD_InitEP
 .text.UDD_InitEndpoints
                0x0008217c       0x3c C:/Arduino/hardware/arduino/sam/variants/arduino_due_x/libsam_sam3x8e_gcc_rel.a(uotghs_device.o)
                0x0008217c                UDD_InitEndpoints
 .text.UDD_WaitIN
                0x000821b8       0x14 C:/Arduino/hardware/arduino/sam/variants/arduino_due_x/libsam_sam3x8e_gcc_rel.a(uotghs_device.o)
                0x000821b8                UDD_WaitIN
 .text.UDD_WaitOUT
                0x000821cc       0x14 C:/Arduino/hardware/arduino/sam/variants/arduino_due_x/libsam_sam3x8e_gcc_rel.a(uotghs_device.o)
                0x000821cc                UDD_WaitOUT
 .text.UDD_ClearIN
                0x000821e0       0x18 C:/Arduino/hardware/arduino/sam/variants/arduino_due_x/libsam_sam3x8e_gcc_rel.a(uotghs_device.o)
                0x000821e0                UDD_ClearIN
 .text.UDD_ClearOUT
                0x000821f8       0x18 C:/Arduino/hardware/arduino/sam/variants/arduino_due_x/libsam_sam3x8e_gcc_rel.a(uotghs_device.o)
                0x000821f8                UDD_ClearOUT
 .text.UDD_ReceivedSetupInt
                0x00082210       0x10 C:/Arduino/hardware/arduino/sam/variants/arduino_due_x/libsam_sam3x8e_gcc_rel.a(uotghs_device.o)
                0x00082210                UDD_ReceivedSetupInt
 .text.UDD_ClearSetupInt
                0x00082220       0x10 C:/Arduino/hardware/arduino/sam/variants/arduino_due_x/libsam_sam3x8e_gcc_rel.a(uotghs_device.o)
                0x00082220                UDD_ClearSetupInt
 .text.UDD_Send
                0x00082230       0x90 C:/Arduino/hardware/arduino/sam/variants/arduino_due_x/libsam_sam3x8e_gcc_rel.a(uotghs_device.o)
                0x00082230                UDD_Send
 .text.UDD_Send8
                0x000822c0       0x28 C:/Arduino/hardware/arduino/sam/variants/arduino_due_x/libsam_sam3x8e_gcc_rel.a(uotghs_device.o)
                0x000822c0                UDD_Send8
 .text.UDD_Recv8
                0x000822e8       0x28 C:/Arduino/hardware/arduino/sam/variants/arduino_due_x/libsam_sam3x8e_gcc_rel.a(uotghs_device.o)
                0x000822e8                UDD_Recv8
 .text.UDD_Recv
                0x00082310       0x34 C:/Arduino/hardware/arduino/sam/variants/arduino_due_x/libsam_sam3x8e_gcc_rel.a(uotghs_device.o)
                0x00082310                UDD_Recv
 .text.UDD_Stall
                0x00082344       0x14 C:/Arduino/hardware/arduino/sam/variants/arduino_due_x/libsam_sam3x8e_gcc_rel.a(uotghs_device.o)
                0x00082344                UDD_Stall
 .text.UDD_FifoByteCount
                0x00082358       0x1c C:/Arduino/hardware/arduino/sam/variants/arduino_due_x/libsam_sam3x8e_gcc_rel.a(uotghs_device.o)
                0x00082358                UDD_FifoByteCount
 .text.UDD_ReleaseRX
                0x00082374       0x2c C:/Arduino/hardware/arduino/sam/variants/arduino_due_x/libsam_sam3x8e_gcc_rel.a(uotghs_device.o)
                0x00082374                UDD_ReleaseRX
 .text.UDD_ReleaseTX
                0x000823a0       0x2c C:/Arduino/hardware/arduino/sam/variants/arduino_due_x/libsam_sam3x8e_gcc_rel.a(uotghs_device.o)
                0x000823a0                UDD_ReleaseTX
 .text.UDD_SetAddress
                0x000823cc       0x20 C:/Arduino/hardware/arduino/sam/variants/arduino_due_x/libsam_sam3x8e_gcc_rel.a(uotghs_device.o)
                0x000823cc                UDD_SetAddress
 .text          0x000823ec      0x370 c:/arduino/hardware/tools/g++_arm_none_eabi/bin/../lib/gcc/arm-none-eabi/4.4.1/thumb2\libgcc.a(_arm_addsubdf3.o)
                0x000823ec                __aeabi_drsub
                0x000823f4                __aeabi_dsub
                0x000823f4                __subdf3
                0x000823f8                __aeabi_dadd
                0x000823f8                __adddf3
                0x00082670                __floatunsidf
                0x00082670                __aeabi_ui2d
                0x00082690                __floatsidf
                0x00082690                __aeabi_i2d
                0x000826b4                __aeabi_f2d
                0x000826b4                __extendsfdf2
                0x000826f0                __floatundidf
                0x000826f0                __aeabi_ul2d
                0x00082700                __floatdidf
                0x00082700                __aeabi_l2d
 .text          0x0008275c      0x424 c:/arduino/hardware/tools/g++_arm_none_eabi/bin/../lib/gcc/arm-none-eabi/4.4.1/thumb2\libgcc.a(_arm_muldivdf3.o)
                0x0008275c                __aeabi_dmul
                0x0008275c                __muldf3
                0x000829b0                __divdf3
                0x000829b0                __aeabi_ddiv
 .text          0x00082b80      0x110 c:/arduino/hardware/tools/g++_arm_none_eabi/bin/../lib/gcc/arm-none-eabi/4.4.1/thumb2\libgcc.a(_arm_cmpdf2.o)
                0x00082b80                __gtdf2
                0x00082b80                __gedf2
                0x00082b88                __ltdf2
                0x00082b88                __ledf2
                0x00082b90                __nedf2
                0x00082b90                __eqdf2
                0x00082b90                __cmpdf2
                0x00082c0c                __aeabi_cdrcmple
                0x00082c1c                __aeabi_cdcmpeq
                0x00082c1c                __aeabi_cdcmple
                0x00082c2c                __aeabi_dcmpeq
                0x00082c40                __aeabi_dcmplt
                0x00082c54                __aeabi_dcmple
                0x00082c68                __aeabi_dcmpge
                0x00082c7c                __aeabi_dcmpgt
 .text          0x00082c90       0x50 c:/arduino/hardware/tools/g++_arm_none_eabi/bin/../lib/gcc/arm-none-eabi/4.4.1/thumb2\libgcc.a(_arm_fixdfsi.o)
                0x00082c90                __aeabi_d2iz
                0x00082c90                __fixdfsi
 .text          0x00082ce0       0xa0 c:/arduino/hardware/tools/g++_arm_none_eabi/bin/../lib/gcc/arm-none-eabi/4.4.1/thumb2\libgcc.a(_arm_truncdfsf2.o)
                0x00082ce0                __truncdfsf2
                0x00082ce0                __aeabi_d2f
 .text          0x00082d80      0x21c c:/arduino/hardware/tools/g++_arm_none_eabi/bin/../lib/gcc/arm-none-eabi/4.4.1/thumb2\libgcc.a(_arm_addsubsf3.o)
                0x00082d80                __aeabi_frsub
                0x00082d88                __subsf3
                0x00082d88                __aeabi_fsub
                0x00082d8c                __aeabi_fadd
                0x00082d8c                __addsf3
                0x00082eec                __aeabi_ui2f
                0x00082eec                __floatunsisf
                0x00082ef4                __aeabi_i2f
                0x00082ef4                __floatsisf
                0x00082f10                __aeabi_ul2f
                0x00082f10                __floatundisf
                0x00082f20                __aeabi_l2f
                0x00082f20                __floatdisf
 .text          0x00082f9c       0xec c:/arduino/hardware/tools/g++_arm_none_eabi/bin/../lib/gcc/arm-none-eabi/4.4.1/thumb2\libgcc.a(_arm_cmpsf2.o)
                0x00082f9c                __gesf2
                0x00082f9c                __gtsf2
                0x00082fa4                __lesf2
                0x00082fa4                __ltsf2
                0x00082fac                __nesf2
                0x00082fac                __eqsf2
                0x00082fac                __cmpsf2
                0x0008300c                __aeabi_cfrcmple
                0x00083014                __aeabi_cfcmpeq
                0x00083014                __aeabi_cfcmple
                0x00083024                __aeabi_fcmpeq
                0x00083038                __aeabi_fcmplt
                0x0008304c                __aeabi_fcmple
                0x00083060                __aeabi_fcmpge
                0x00083074                __aeabi_fcmpgt
 .text          0x00083088       0x54 c:/arduino/hardware/tools/g++_arm_none_eabi/bin/../lib/gcc/arm-none-eabi/4.4.1/../../../../arm-none-eabi/lib/thumb2\libc.a(lib_a-assert.o)
                0x00083088                __assert_func
                0x000830d0                __assert
 .text          0x000830dc       0x4c c:/arduino/hardware/tools/g++_arm_none_eabi/bin/../lib/gcc/arm-none-eabi/4.4.1/../../../../arm-none-eabi/lib/thumb2\libc.a(lib_a-fiprintf.o)
                0x000830dc                fiprintf
                0x00083108                _fiprintf_r
 .text          0x00083128       0x50 c:/arduino/hardware/tools/g++_arm_none_eabi/bin/../lib/gcc/arm-none-eabi/4.4.1/../../../../arm-none-eabi/lib/thumb2\libc.a(lib_a-init.o)
                0x00083128                __libc_init_array
 .text          0x00083178       0x64 c:/arduino/hardware/tools/g++_arm_none_eabi/bin/../lib/gcc/arm-none-eabi/4.4.1/../../../../arm-none-eabi/lib/thumb2\libc.a(lib_a-iprintf.o)
                0x00083178                _iprintf_r
                0x000831a4                iprintf
 .text          0x000831dc      0x5a4 c:/arduino/hardware/tools/g++_arm_none_eabi/bin/../lib/gcc/arm-none-eabi/4.4.1/../../../../arm-none-eabi/lib/thumb2\libc.a(lib_a-mallocr.o)
                0x000831dc                _malloc_r
 .text          0x00083780      0x190 c:/arduino/hardware/tools/g++_arm_none_eabi/bin/../lib/gcc/arm-none-eabi/4.4.1/../../../../arm-none-eabi/lib/thumb2\libc.a(lib_a-memcpy.o)
                0x00083780                memcpy
 .text          0x00083910       0xb8 c:/arduino/hardware/tools/g++_arm_none_eabi/bin/../lib/gcc/arm-none-eabi/4.4.1/../../../../arm-none-eabi/lib/thumb2\libc.a(lib_a-memmove.o)
                0x00083910                memmove
 .text          0x000839c8       0xd4 c:/arduino/hardware/tools/g++_arm_none_eabi/bin/../lib/gcc/arm-none-eabi/4.4.1/../../../../arm-none-eabi/lib/thumb2\libc.a(lib_a-memset.o)
                0x000839c8                memset
 .text          0x00083a9c        0x8 c:/arduino/hardware/tools/g++_arm_none_eabi/bin/../lib/gcc/arm-none-eabi/4.4.1/../../../../arm-none-eabi/lib/thumb2\libc.a(lib_a-mlock.o)
                0x00083a9c                __malloc_lock
                0x00083aa0                __malloc_unlock
 .text          0x00083aa4      0x3b4 c:/arduino/hardware/tools/g++_arm_none_eabi/bin/../lib/gcc/arm-none-eabi/4.4.1/../../../../arm-none-eabi/lib/thumb2\libc.a(lib_a-reallocr.o)
                0x00083aa4                _realloc_r
 .text          0x00083e58       0x28 c:/arduino/hardware/tools/g++_arm_none_eabi/bin/../lib/gcc/arm-none-eabi/4.4.1/../../../../arm-none-eabi/lib/thumb2\libc.a(lib_a-sbrkr.o)
                0x00083e58                _sbrk_r
 .text          0x00083e80       0x60 c:/arduino/hardware/tools/g++_arm_none_eabi/bin/../lib/gcc/arm-none-eabi/4.4.1/../../../../arm-none-eabi/lib/thumb2\libc.a(lib_a-strlen.o)
                0x00083e80                strlen
 .text          0x00083ee0      0xd38 c:/arduino/hardware/tools/g++_arm_none_eabi/bin/../lib/gcc/arm-none-eabi/4.4.1/../../../../arm-none-eabi/lib/thumb2\libc.a(lib_a-vfiprintf.o)
                0x00083efc                _vfiprintf_r
                0x00084bfc                vfiprintf
 .text          0x00084c18      0x104 c:/arduino/hardware/tools/g++_arm_none_eabi/bin/../lib/gcc/arm-none-eabi/4.4.1/../../../../arm-none-eabi/lib/thumb2\libc.a(lib_a-wsetup.o)
                0x00084c18                __swsetup_r
 .text          0x00084d1c       0x10 c:/arduino/hardware/tools/g++_arm_none_eabi/bin/../lib/gcc/arm-none-eabi/4.4.1/../../../../arm-none-eabi/lib/thumb2\libc.a(lib_a-abort.o)
                0x00084d1c                abort
 .text          0x00084d2c      0x178 c:/arduino/hardware/tools/g++_arm_none_eabi/bin/../lib/gcc/arm-none-eabi/4.4.1/../../../../arm-none-eabi/lib/thumb2\libc.a(lib_a-fflush.o)
                0x00084d2c                _fflush_r
                0x00084e7c                fflush
 .text          0x00084ea4      0x1c8 c:/arduino/hardware/tools/g++_arm_none_eabi/bin/../lib/gcc/arm-none-eabi/4.4.1/../../../../arm-none-eabi/lib/thumb2\libc.a(lib_a-findfp.o)
                0x00084ea4                __sfp_lock_acquire
                0x00084ea8                __sfp_lock_release
                0x00084eac                __sinit_lock_acquire
                0x00084eb0                __sinit_lock_release
                0x00084ebc                __fp_unlock_all
                0x00084ed4                __fp_lock_all
                0x00084eec                _cleanup_r
                0x00084ef8                _cleanup
                0x00084f54                __sfmoreglue
                0x00084f84                __sfp
                0x0008500c                __sinit
 .text          0x0008506c      0x268 c:/arduino/hardware/tools/g++_arm_none_eabi/bin/../lib/gcc/arm-none-eabi/4.4.1/../../../../arm-none-eabi/lib/thumb2\libc.a(lib_a-freer.o)
                0x0008506c                _malloc_trim_r
                0x00085114                _free_r
 .text          0x000852d4      0x334 c:/arduino/hardware/tools/g++_arm_none_eabi/bin/../lib/gcc/arm-none-eabi/4.4.1/../../../../arm-none-eabi/lib/thumb2\libc.a(lib_a-fvwrite.o)
                0x000852d4                __sfvwrite_r
 .text          0x00085608       0xa0 c:/arduino/hardware/tools/g++_arm_none_eabi/bin/../lib/gcc/arm-none-eabi/4.4.1/../../../../arm-none-eabi/lib/thumb2\libc.a(lib_a-fwalk.o)
                0x00085608                _fwalk_reent
                0x0008565c                _fwalk
 .text          0x000856a8       0xdc c:/arduino/hardware/tools/g++_arm_none_eabi/bin/../lib/gcc/arm-none-eabi/4.4.1/../../../../arm-none-eabi/lib/thumb2\libc.a(lib_a-makebuf.o)
                0x000856a8                __smakebuf_r
 .text          0x00085784       0x74 c:/arduino/hardware/tools/g++_arm_none_eabi/bin/../lib/gcc/arm-none-eabi/4.4.1/../../../../arm-none-eabi/lib/thumb2\libc.a(lib_a-memchr.o)
                0x00085784                memchr
 .text          0x000857f8      0x14c c:/arduino/hardware/tools/g++_arm_none_eabi/bin/../lib/gcc/arm-none-eabi/4.4.1/../../../../arm-none-eabi/lib/thumb2\libc.a(lib_a-signal.o)
                0x000857f8                _raise_r
                0x00085850                raise
                0x00085860                _init_signal_r
                0x00085888                _init_signal
                0x00085894                __sigtramp_r
                0x000858e8                __sigtramp
                0x000858f8                _signal_r
                0x00085934                signal
 .text          0x00085944       0x30 c:/arduino/hardware/tools/g++_arm_none_eabi/bin/../lib/gcc/arm-none-eabi/4.4.1/../../../../arm-none-eabi/lib/thumb2\libc.a(lib_a-signalr.o)
                0x00085944                _getpid_r
                0x00085948                _kill_r
 .text          0x00085974       0x90 c:/arduino/hardware/tools/g++_arm_none_eabi/bin/../lib/gcc/arm-none-eabi/4.4.1/../../../../arm-none-eabi/lib/thumb2\libc.a(lib_a-stdio.o)
                0x00085974                __sclose
                0x0008597c                __sseek
                0x000859a4                __swrite
                0x000859e0                __sread
 .text          0x00085a04       0x2c c:/arduino/hardware/tools/g++_arm_none_eabi/bin/../lib/gcc/arm-none-eabi/4.4.1/../../../../arm-none-eabi/lib/thumb2\libc.a(lib_a-writer.o)
                0x00085a04                _write_r
 .text          0x00085a30       0x28 c:/arduino/hardware/tools/g++_arm_none_eabi/bin/../lib/gcc/arm-none-eabi/4.4.1/../../../../arm-none-eabi/lib/thumb2\libc.a(lib_a-closer.o)
                0x00085a30                _close_r
 .text          0x00085a58       0xcc c:/arduino/hardware/tools/g++_arm_none_eabi/bin/../lib/gcc/arm-none-eabi/4.4.1/../../../../arm-none-eabi/lib/thumb2\libc.a(lib_a-fclose.o)
                0x00085a58                _fclose_r
                0x00085b14                fclose
 .text          0x00085b24       0x2c c:/arduino/hardware/tools/g++_arm_none_eabi/bin/../lib/gcc/arm-none-eabi/4.4.1/../../../../arm-none-eabi/lib/thumb2\libc.a(lib_a-fstatr.o)
                0x00085b24                _fstat_r
 .text          0x00085b50       0x28 c:/arduino/hardware/tools/g++_arm_none_eabi/bin/../lib/gcc/arm-none-eabi/4.4.1/../../../../arm-none-eabi/lib/thumb2\libc.a(lib_a-isattyr.o)
                0x00085b50                _isatty_r
 .text          0x00085b78       0x2c c:/arduino/hardware/tools/g++_arm_none_eabi/bin/../lib/gcc/arm-none-eabi/4.4.1/../../../../arm-none-eabi/lib/thumb2\libc.a(lib_a-lseekr.o)
                0x00085b78                _lseek_r
 .text          0x00085ba4       0x2c c:/arduino/hardware/tools/g++_arm_none_eabi/bin/../lib/gcc/arm-none-eabi/4.4.1/../../../../arm-none-eabi/lib/thumb2\libc.a(lib_a-readr.o)
                0x00085ba4                _read_r
 .text          0x00085bd0      0x278 c:/arduino/hardware/tools/g++_arm_none_eabi/bin/../lib/gcc/arm-none-eabi/4.4.1/thumb2\libgcc.a(_udivsi3.o)
                0x00085bd0                __aeabi_uidiv
                0x00085bd0                __udivsi3
                0x00085e2c                __aeabi_uidivmod
 .text          0x00085e48        0x4 c:/arduino/hardware/tools/g++_arm_none_eabi/bin/../lib/gcc/arm-none-eabi/4.4.1/thumb2\libgcc.a(_dvmd_tls.o)
                0x00085e48                __aeabi_idiv0
                0x00085e48                __aeabi_ldiv0
 .text          0x00085e4c       0x2c c:/arduino/hardware/tools/g++_arm_none_eabi/bin/../lib/gcc/arm-none-eabi/4.4.1/thumb2\libgcc.a(_aeabi_uldivmod.o)
                0x00085e4c                __aeabi_uldivmod
 .text          0x00085e78       0x58 c:/arduino/hardware/tools/g++_arm_none_eabi/bin/../lib/gcc/arm-none-eabi/4.4.1/thumb2\libgcc.a(bpabi.o)
                0x00085e78                __gnu_uldivmod_helper
                0x00085ea4                __gnu_ldivmod_helper
 .text          0x00085ed0      0x364 c:/arduino/hardware/tools/g++_arm_none_eabi/bin/../lib/gcc/arm-none-eabi/4.4.1/thumb2\libgcc.a(_divdi3.o)
                0x00085ed0                __divdi3
 .text          0x00086234      0x300 c:/arduino/hardware/tools/g++_arm_none_eabi/bin/../lib/gcc/arm-none-eabi/4.4.1/thumb2\libgcc.a(_udivdi3.o)
                0x00086234                __udivdi3
 *(.glue_7t)
 .glue_7t       0x00000000        0x0 linker stubs
 *(.glue_7)
 .glue_7        0x00000000        0x0 linker stubs
 *(.rodata .rodata* .gnu.linkonce.r.*)
 .rodata.str1.1
                0x00086534       0x19 C:/Users/jon_000/Git/ALFRED_TEST/Release/arduino/syscalls_sam3.c.o
 .rodata.str1.1
                0x0008654d       0x84 ./ALFRED_TEST.cpp.o
 *fill*         0x000865d1        0x3 00
 .rodata._ZN8DueTimer6TimersE
                0x000865d4       0x6c ./Libraries/DueTimer/DueTimer.cpp.o
                0x000865d4                DueTimer::Timers
 .rodata._ZZN8DueTimer9bestClockEdRmE4C.30
                0x00086640        0x8 ./Libraries/DueTimer/DueTimer.cpp.o
 .rodata.g_APinDescription
                0x00086648      0xa2c C:/Users/jon_000/Git/ALFRED_TEST/Release/arduino.ar(variant.cpp.o)
                0x00086648                g_APinDescription
 *fill*         0x00087074        0x4 00
 .rodata._ZTV9UARTClass
                0x00087078       0x28 C:/Users/jon_000/Git/ALFRED_TEST/Release/arduino.ar(UARTClass.cpp.o)
                0x00087078                vtable for UARTClass
 .rodata._ZTV10USARTClass
                0x000870a0       0x28 C:/Users/jon_000/Git/ALFRED_TEST/Release/arduino.ar(USARTClass.cpp.o)
                0x000870a0                vtable for USARTClass
 .rodata.str1.1
                0x000870c8       0x54 C:/Arduino/hardware/arduino/sam/variants/arduino_due_x/libsam_sam3x8e_gcc_rel.a(tc.o)
 .rodata.__func__.6630
                0x0008711c        0xd C:/Arduino/hardware/arduino/sam/variants/arduino_due_x/libsam_sam3x8e_gcc_rel.a(tc.o)
 .rodata.__func__.6636
                0x00087129        0x9 C:/Arduino/hardware/arduino/sam/variants/arduino_due_x/libsam_sam3x8e_gcc_rel.a(tc.o)
 .rodata.__func__.6642
                0x00087132        0x8 C:/Arduino/hardware/arduino/sam/variants/arduino_due_x/libsam_sam3x8e_gcc_rel.a(tc.o)
 *fill*         0x0008713a        0x2 00
 .rodata.C.0.8141
                0x0008713c       0x40 C:/Arduino/hardware/arduino/sam/variants/arduino_due_x/libsam_sam3x8e_gcc_rel.a(adc.o)
 .rodata.USB_DeviceDescriptorA
                0x0008717c       0x14 C:/Users/jon_000/Git/ALFRED_TEST/Release/arduino.ar(USBCore.cpp.o)
                0x0008717c                USB_DeviceDescriptorA
 .rodata.USB_DeviceDescriptor
                0x00087190       0x14 C:/Users/jon_000/Git/ALFRED_TEST/Release/arduino.ar(USBCore.cpp.o)
                0x00087190                USB_DeviceDescriptor
 .rodata._ZL9EndPoints
                0x000871a4       0x14 C:/Users/jon_000/Git/ALFRED_TEST/Release/arduino.ar(USBCore.cpp.o)
 .rodata.STRING_LANGUAGE
                0x000871b8        0x4 C:/Users/jon_000/Git/ALFRED_TEST/Release/arduino.ar(USBCore.cpp.o)
                0x000871b8                STRING_LANGUAGE
 .rodata._ZL18test_packet_buffer
                0x000871bc       0x38 C:/Users/jon_000/Git/ALFRED_TEST/Release/arduino.ar(USBCore.cpp.o)
 .rodata.STRING_PRODUCT
                0x000871f4        0xc C:/Users/jon_000/Git/ALFRED_TEST/Release/arduino.ar(USBCore.cpp.o)
                0x000871f4                STRING_PRODUCT
 .rodata.STRING_MANUFACTURER
                0x00087200        0xc C:/Users/jon_000/Git/ALFRED_TEST/Release/arduino.ar(USBCore.cpp.o)
                0x00087200                STRING_MANUFACTURER
 .rodata._ZL19USB_DeviceQualifier
                0x0008720c       0x14 C:/Users/jon_000/Git/ALFRED_TEST/Release/arduino.ar(USBCore.cpp.o)
 .rodata._ZTV7Serial_
                0x00087220       0x28 C:/Users/jon_000/Git/ALFRED_TEST/Release/arduino.ar(CDC.cpp.o)
                0x00087220                vtable for Serial_
 .rodata._ZL18_cdcOtherInterface
                0x00087248       0x44 C:/Users/jon_000/Git/ALFRED_TEST/Release/arduino.ar(CDC.cpp.o)
 .rodata._ZL13_cdcInterface
                0x0008728c       0x44 C:/Users/jon_000/Git/ALFRED_TEST/Release/arduino.ar(CDC.cpp.o)
 .rodata._ZTV9Keyboard_
                0x000872d0       0x20 C:/Users/jon_000/Git/ALFRED_TEST/Release/arduino.ar(HID.cpp.o)
                0x000872d0                vtable for Keyboard_
 .rodata._asciimap
                0x000872f0       0x80 C:/Users/jon_000/Git/ALFRED_TEST/Release/arduino.ar(HID.cpp.o)
                0x000872f0                _asciimap
 .rodata._hidInterface
                0x00087370       0x1c C:/Users/jon_000/Git/ALFRED_TEST/Release/arduino.ar(HID.cpp.o)
                0x00087370                _hidInterface
 .rodata._hidReportDescriptor
                0x0008738c       0x68 C:/Users/jon_000/Git/ALFRED_TEST/Release/arduino.ar(HID.cpp.o)
                0x0008738c                _hidReportDescriptor
 .rodata.str1.4
                0x000873f4       0x3f c:/arduino/hardware/tools/g++_arm_none_eabi/bin/../lib/gcc/arm-none-eabi/4.4.1/../../../../arm-none-eabi/lib/thumb2\libc.a(lib_a-assert.o)
                                 0x44 (size before relaxing)
 *fill*         0x00087433        0x1 00
 .rodata        0x00087434        0x4 c:/arduino/hardware/tools/g++_arm_none_eabi/bin/../lib/gcc/arm-none-eabi/4.4.1/../../../../arm-none-eabi/lib/thumb2\libc.a(lib_a-impure.o)
                0x00087434                _global_impure_ptr
 .rodata.str1.4
                0x00087438        0x2 c:/arduino/hardware/tools/g++_arm_none_eabi/bin/../lib/gcc/arm-none-eabi/4.4.1/../../../../arm-none-eabi/lib/thumb2\libc.a(lib_a-impure.o)
                                  0x4 (size before relaxing)
 *fill*         0x0008743a        0x2 00
 .rodata        0x0008743c       0x20 c:/arduino/hardware/tools/g++_arm_none_eabi/bin/../lib/gcc/arm-none-eabi/4.4.1/../../../../arm-none-eabi/lib/thumb2\libc.a(lib_a-vfiprintf.o)
 .rodata.str1.4
                0x0008745c       0x30 c:/arduino/hardware/tools/g++_arm_none_eabi/bin/../lib/gcc/arm-none-eabi/4.4.1/../../../../arm-none-eabi/lib/thumb2\libc.a(lib_a-vfiprintf.o)
 .rodata        0x0008748c       0x60 c:/arduino/hardware/tools/g++_arm_none_eabi/bin/../lib/gcc/arm-none-eabi/4.4.1/../../../../arm-none-eabi/lib/thumb2\libc.a(lib_a-findfp.o)
                0x0008748c                __sf_fake_stdin
                0x000874ac                __sf_fake_stdout
                0x000874cc                __sf_fake_stderr
 *(.ARM.extab* .gnu.linkonce.armextab.*)
                0x000874ec                . = ALIGN (0x4)
 *(.init)
 .init          0x000874ec        0x4 c:/arduino/hardware/tools/g++_arm_none_eabi/bin/../lib/gcc/arm-none-eabi/4.4.1/thumb2/crti.o
                0x000874ec                _init
 .init          0x000874f0        0x8 c:/arduino/hardware/tools/g++_arm_none_eabi/bin/../lib/gcc/arm-none-eabi/4.4.1/thumb2/crtn.o
                0x000874f8                . = ALIGN (0x4)
                0x000874f8                __preinit_array_start = .
 *(.preinit_array)
                0x000874f8                __preinit_array_end = .
                0x000874f8                . = ALIGN (0x4)
                0x000874f8                __init_array_start = .
 *(SORT(.init_array.*))
 *(.init_array)
 .init_array    0x000874f8        0x4 c:/arduino/hardware/tools/g++_arm_none_eabi/bin/../lib/gcc/arm-none-eabi/4.4.1/thumb2/crtbegin.o
 .init_array    0x000874fc        0x4 ./Libraries/DueTimer/DueTimer.cpp.o
 .init_array    0x00087500        0x4 C:/Users/jon_000/Git/ALFRED_TEST/Release/arduino.ar(variant.cpp.o)
 .init_array    0x00087504        0x4 C:/Users/jon_000/Git/ALFRED_TEST/Release/arduino.ar(USBCore.cpp.o)
 .init_array    0x00087508        0x4 C:/Users/jon_000/Git/ALFRED_TEST/Release/arduino.ar(CDC.cpp.o)
 .init_array    0x0008750c        0x4 C:/Users/jon_000/Git/ALFRED_TEST/Release/arduino.ar(HID.cpp.o)
                0x00087510                __init_array_end = .
                0x00087510                . = ALIGN (0x4)
 *crtbegin.o(.ctors)
 *(EXCLUDE_FILE(*crtend.o) .ctors)
 *(SORT(.ctors.*))
 *crtend.o(.ctors)
                0x00087510                . = ALIGN (0x4)
 *(.fini)
 .fini          0x00087510        0x4 c:/arduino/hardware/tools/g++_arm_none_eabi/bin/../lib/gcc/arm-none-eabi/4.4.1/thumb2/crti.o
                0x00087510                _fini
 .fini          0x00087514        0x8 c:/arduino/hardware/tools/g++_arm_none_eabi/bin/../lib/gcc/arm-none-eabi/4.4.1/thumb2/crtn.o
                0x0008751c                . = ALIGN (0x4)
                0x0008751c                __fini_array_start = .
 *(.fini_array)
 .fini_array    0x0008751c        0x4 c:/arduino/hardware/tools/g++_arm_none_eabi/bin/../lib/gcc/arm-none-eabi/4.4.1/thumb2/crtbegin.o
 *(SORT(.fini_array.*))
                0x00087520                __fini_array_end = .
 *crtbegin.o(.dtors)
 *(EXCLUDE_FILE(*crtend.o) .dtors)
 *(SORT(.dtors.*))
 *crtend.o(.dtors)
                0x00087520                . = ALIGN (0x4)
                0x00087520                _efixed = .
                0x00087520                PROVIDE (__exidx_start, .)

.jcr            0x00087520        0x0
 .jcr           0x00087520        0x0 c:/arduino/hardware/tools/g++_arm_none_eabi/bin/../lib/gcc/arm-none-eabi/4.4.1/thumb2/crtbegin.o

.vfp11_veneer   0x00087520        0x0
 .vfp11_veneer  0x00000000        0x0 linker stubs

.v4_bx          0x00087520        0x0
 .v4_bx         0x00000000        0x0 linker stubs

.ARM.exidx      0x00087520        0x8
 *(.ARM.exidx* .gnu.linkonce.armexidx.*)
 .ARM.exidx     0x00087520        0x8 c:/arduino/hardware/tools/g++_arm_none_eabi/bin/../lib/gcc/arm-none-eabi/4.4.1/thumb2\libgcc.a(_divdi3.o)
 .ARM.exidx     0x00087528        0x0 c:/arduino/hardware/tools/g++_arm_none_eabi/bin/../lib/gcc/arm-none-eabi/4.4.1/thumb2\libgcc.a(_udivdi3.o)
                                  0x8 (size before relaxing)
                0x00087528                PROVIDE (__exidx_end, .)
                0x00087528                . = ALIGN (0x4)
                0x00087528                _etext = .

.relocate       0x20070000      0x59c load address 0x00087528
                0x20070000                . = ALIGN (0x4)
                0x20070000                _srelocate = .
 *(.ramfunc .ramfunc.*)
 .ramfunc       0x20070000       0x34 C:/Users/jon_000/Git/ALFRED_TEST/Release/arduino.ar(Reset.cpp.o)
                0x20070000                banzai
 *(.data .data.*)
 *fill*         0x20070034        0x4 00
 .data._ZN8DueTimer10_frequencyE
                0x20070038       0x48 ./Libraries/DueTimer/DueTimer.cpp.o
                0x20070038                DueTimer::_frequency
 .data.SystemCoreClock
                0x20070080        0x4 C:/Arduino/hardware/arduino/sam/variants/arduino_due_x/libsam_sam3x8e_gcc_rel.a(system_sam3xa.o)
                0x20070080                SystemCoreClock
 .data._ZL5ticks
                0x20070084        0x4 C:/Users/jon_000/Git/ALFRED_TEST/Release/arduino.ar(Reset.cpp.o)
 .data._ZL12_usbLineInfo
                0x20070088        0x8 C:/Users/jon_000/Git/ALFRED_TEST/Release/arduino.ar(CDC.cpp.o)
 .data._hid_protocol
                0x20070090        0x1 C:/Users/jon_000/Git/ALFRED_TEST/Release/arduino.ar(HID.cpp.o)
                0x20070090                _hid_protocol
 .data._hid_idle
                0x20070091        0x1 C:/Users/jon_000/Git/ALFRED_TEST/Release/arduino.ar(HID.cpp.o)
                0x20070091                _hid_idle
 *fill*         0x20070092        0x2 00
 .data.g_interrupt_enabled
                0x20070094        0x4 C:/Arduino/hardware/arduino/sam/variants/arduino_due_x/libsam_sam3x8e_gcc_rel.a(interrupt_sam_nvic.o)
                0x20070094                g_interrupt_enabled
 .data          0x20070098       0xf4 c:/arduino/hardware/tools/g++_arm_none_eabi/bin/../lib/gcc/arm-none-eabi/4.4.1/../../../../arm-none-eabi/lib/thumb2\libc.a(lib_a-impure.o)
                0x20070098                _impure_ptr
 .data          0x2007018c      0x410 c:/arduino/hardware/tools/g++_arm_none_eabi/bin/../lib/gcc/arm-none-eabi/4.4.1/../../../../arm-none-eabi/lib/thumb2\libc.a(lib_a-mallocr.o)
                0x2007018c                __malloc_av_
                0x20070594                __malloc_sbrk_base
                0x20070598                __malloc_trim_threshold
                0x2007059c                . = ALIGN (0x4)
                0x2007059c                _erelocate = .

.bss            0x2007059c      0x754 load address 0x00087ac4
                0x2007059c                . = ALIGN (0x4)
                0x2007059c                _sbss = .
                0x2007059c                _szero = .
 *(.bss .bss.*)
 .bss           0x2007059c        0x1 c:/arduino/hardware/tools/g++_arm_none_eabi/bin/../lib/gcc/arm-none-eabi/4.4.1/thumb2/crtbegin.o
 *fill*         0x2007059d        0x3 00
 .bss.heap.3798
                0x200705a0        0x4 C:/Users/jon_000/Git/ALFRED_TEST/Release/arduino/syscalls_sam3.c.o
 .bss.init_watchdog
                0x200705a4        0x1 ./ALFRED_TEST.cpp.o
                0x200705a4                init_watchdog
 *fill*         0x200705a5        0x3 00
 .bss.serialData
                0x200705a8       0x20 ./ALFRED_TEST.cpp.o
                0x200705a8                serialData
 .bss.connected
                0x200705c8        0x1 ./ALFRED_TEST.cpp.o
                0x200705c8                connected
 *fill*         0x200705c9        0x3 00
 .bss.Timer0    0x200705cc        0x4 ./Libraries/DueTimer/DueTimer.cpp.o
                0x200705cc                Timer0
 .bss.Timer1    0x200705d0        0x4 ./Libraries/DueTimer/DueTimer.cpp.o
                0x200705d0                Timer1
 .bss.Timer2    0x200705d4        0x4 ./Libraries/DueTimer/DueTimer.cpp.o
                0x200705d4                Timer2
 .bss.Timer3    0x200705d8        0x4 ./Libraries/DueTimer/DueTimer.cpp.o
                0x200705d8                Timer3
 .bss.Timer4    0x200705dc        0x4 ./Libraries/DueTimer/DueTimer.cpp.o
                0x200705dc                Timer4
 .bss.Timer6    0x200705e0        0x4 ./Libraries/DueTimer/DueTimer.cpp.o
                0x200705e0                Timer6
 .bss.Timer7    0x200705e4        0x4 ./Libraries/DueTimer/DueTimer.cpp.o
                0x200705e4                Timer7
 .bss.Timer8    0x200705e8        0x4 ./Libraries/DueTimer/DueTimer.cpp.o
                0x200705e8                Timer8
 .bss._ZN8DueTimer9callbacksE
                0x200705ec       0x24 ./Libraries/DueTimer/DueTimer.cpp.o
                0x200705ec                DueTimer::callbacks
 .bss.Timer5    0x20070610        0x4 ./Libraries/DueTimer/DueTimer.cpp.o
                0x20070610                Timer5
 .bss.Timer     0x20070614        0x4 ./Libraries/DueTimer/DueTimer.cpp.o
                0x20070614                Timer
 .bss.Serial    0x20070618       0x20 C:/Users/jon_000/Git/ALFRED_TEST/Release/arduino.ar(variant.cpp.o)
                0x20070618                Serial
 .bss.rx_buffer1
                0x20070638       0x48 C:/Users/jon_000/Git/ALFRED_TEST/Release/arduino.ar(variant.cpp.o)
                0x20070638                rx_buffer1
 .bss.Serial1   0x20070680       0x20 C:/Users/jon_000/Git/ALFRED_TEST/Release/arduino.ar(variant.cpp.o)
                0x20070680                Serial1
 .bss.Serial2   0x200706a0       0x20 C:/Users/jon_000/Git/ALFRED_TEST/Release/arduino.ar(variant.cpp.o)
                0x200706a0                Serial2
 .bss.Serial3   0x200706c0       0x20 C:/Users/jon_000/Git/ALFRED_TEST/Release/arduino.ar(variant.cpp.o)
                0x200706c0                Serial3
 .bss.rx_buffer2
                0x200706e0       0x48 C:/Users/jon_000/Git/ALFRED_TEST/Release/arduino.ar(variant.cpp.o)
                0x200706e0                rx_buffer2
 .bss.rx_buffer3
                0x20070728       0x48 C:/Users/jon_000/Git/ALFRED_TEST/Release/arduino.ar(variant.cpp.o)
                0x20070728                rx_buffer3
 .bss.rx_buffer4
                0x20070770       0x48 C:/Users/jon_000/Git/ALFRED_TEST/Release/arduino.ar(variant.cpp.o)
                0x20070770                rx_buffer4
 .bss.pinEnabled
                0x200707b8       0x50 C:/Users/jon_000/Git/ALFRED_TEST/Release/arduino.ar(wiring_analog.c.o)
 .bss._dwTickCount
                0x20070808        0x4 C:/Arduino/hardware/arduino/sam/variants/arduino_due_x/libsam_sam3x8e_gcc_rel.a(timetick.o)
 .bss.gpf_isr   0x2007080c        0x4 C:/Arduino/hardware/arduino/sam/variants/arduino_due_x/libsam_sam3x8e_gcc_rel.a(uotghs.o)
                0x2007080c                gpf_isr
 .bss.callbacksPioA
                0x20070810       0x80 C:/Users/jon_000/Git/ALFRED_TEST/Release/arduino.ar(WInterrupts.c.o)
 .bss.callbacksPioB
                0x20070890       0x80 C:/Users/jon_000/Git/ALFRED_TEST/Release/arduino.ar(WInterrupts.c.o)
 .bss.callbacksPioC
                0x20070910       0x80 C:/Users/jon_000/Git/ALFRED_TEST/Release/arduino.ar(WInterrupts.c.o)
 .bss.callbacksPioD
                0x20070990       0x80 C:/Users/jon_000/Git/ALFRED_TEST/Release/arduino.ar(WInterrupts.c.o)
 .bss._ZL14isEndpointHalt
                0x20070a10        0x1 C:/Users/jon_000/Git/ALFRED_TEST/Release/arduino.ar(USBCore.cpp.o)
 *fill*         0x20070a11        0x3 00
 .bss._cmark    0x20070a14        0x4 C:/Users/jon_000/Git/ALFRED_TEST/Release/arduino.ar(USBCore.cpp.o)
                0x20070a14                _cmark
 .bss._cend     0x20070a18        0x4 C:/Users/jon_000/Git/ALFRED_TEST/Release/arduino.ar(USBCore.cpp.o)
                0x20070a18                _cend
 .bss._cdcComposite
                0x20070a1c        0x4 C:/Users/jon_000/Git/ALFRED_TEST/Release/arduino.ar(USBCore.cpp.o)
                0x20070a1c                _cdcComposite
 .bss._usbInitialized
                0x20070a20        0x4 C:/Users/jon_000/Git/ALFRED_TEST/Release/arduino.ar(USBCore.cpp.o)
                0x20070a20                _usbInitialized
 .bss.USBDevice
                0x20070a24        0x4 C:/Users/jon_000/Git/ALFRED_TEST/Release/arduino.ar(USBCore.cpp.o)
                0x20070a24                USBDevice
 .bss._usbSetInterface
                0x20070a28        0x4 C:/Users/jon_000/Git/ALFRED_TEST/Release/arduino.ar(USBCore.cpp.o)
                0x20070a28                _usbSetInterface
 .bss._ZL21isRemoteWakeUpEnabled
                0x20070a2c        0x1 C:/Users/jon_000/Git/ALFRED_TEST/Release/arduino.ar(USBCore.cpp.o)
 *fill*         0x20070a2d        0x3 00
 .bss._usbConfiguration
                0x20070a30        0x4 C:/Users/jon_000/Git/ALFRED_TEST/Release/arduino.ar(USBCore.cpp.o)
                0x20070a30                _usbConfiguration
 .bss.cdc_rx_buffer
                0x20070a34      0x208 C:/Users/jon_000/Git/ALFRED_TEST/Release/arduino.ar(CDC.cpp.o)
                0x20070a34                cdc_rx_buffer
 .bss._ZZN7Serial_6acceptEvE5guard
                0x20070c3c        0x4 C:/Users/jon_000/Git/ALFRED_TEST/Release/arduino.ar(CDC.cpp.o)
 .bss.SerialUSB
                0x20070c40       0x14 C:/Users/jon_000/Git/ALFRED_TEST/Release/arduino.ar(CDC.cpp.o)
                0x20070c40                SerialUSB
 .bss.Mouse     0x20070c54        0x4 C:/Users/jon_000/Git/ALFRED_TEST/Release/arduino.ar(HID.cpp.o)
                0x20070c54                Mouse
 .bss.Keyboard  0x20070c58       0x10 C:/Users/jon_000/Git/ALFRED_TEST/Release/arduino.ar(HID.cpp.o)
                0x20070c58                Keyboard
 .bss.ul_recv_fifo_ptr
                0x20070c68       0x28 C:/Arduino/hardware/arduino/sam/variants/arduino_due_x/libsam_sam3x8e_gcc_rel.a(uotghs_device.o)
 .bss.ul_send_fifo_ptr
                0x20070c90       0x28 C:/Arduino/hardware/arduino/sam/variants/arduino_due_x/libsam_sam3x8e_gcc_rel.a(uotghs_device.o)
 .bss           0x20070cb8       0x34 c:/arduino/hardware/tools/g++_arm_none_eabi/bin/../lib/gcc/arm-none-eabi/4.4.1/../../../../arm-none-eabi/lib/thumb2\libc.a(lib_a-mallocr.o)
                0x20070cb8                __malloc_top_pad
                0x20070cbc                __malloc_current_mallinfo
                0x20070ce4                __malloc_max_sbrked_mem
                0x20070ce8                __malloc_max_total_mem
 *(COMMON)
 COMMON         0x20070cec        0x4 c:/arduino/hardware/tools/g++_arm_none_eabi/bin/../lib/gcc/arm-none-eabi/4.4.1/../../../../arm-none-eabi/lib/thumb2\libc.a(lib_a-reent.o)
                0x20070cec                errno
                0x20070cf0                . = ALIGN (0x4)
                0x20070cf0                _ebss = .
                0x20070cf0                _ezero = .
                0x20070cf0                . = ALIGN (0x4)
                0x20070cf0                _end = .

.stack_dummy    0x20070cf0        0x0
 *(.stack*)
                0x20088000                __StackTop = 0x20088000
                0x20088000                __StackLimit = (__StackTop - SIZEOF (.stack_dummy))
                0x20088000                PROVIDE (_sstack, __StackLimit)
                0x20088000                PROVIDE (_estack, __StackTop)
OUTPUT(C:/Users/jon_000/Git/ALFRED_TEST/Release/ALFRED_TEST.elf elf32-littlearm)

.ARM.attributes
                0x00000000       0x25
 .ARM.attributes
                0x00000000       0x19 c:/arduino/hardware/tools/g++_arm_none_eabi/bin/../lib/gcc/arm-none-eabi/4.4.1/thumb2/crti.o
 .ARM.attributes
                0x00000019       0x29 c:/arduino/hardware/tools/g++_arm_none_eabi/bin/../lib/gcc/arm-none-eabi/4.4.1/thumb2/crtbegin.o
 .ARM.attributes
                0x00000042       0x31 C:/Users/jon_000/Git/ALFRED_TEST/Release/arduino/syscalls_sam3.c.o
 .ARM.attributes
                0x00000073       0x31 ./ALFRED_TEST.cpp.o
 .ARM.attributes
                0x000000a4       0x31 ./Libraries/DueTimer/DueTimer.cpp.o
 .ARM.attributes
                0x000000d5       0x31 C:/Users/jon_000/Git/ALFRED_TEST/Release/arduino.ar(variant.cpp.o)
 .ARM.attributes
                0x00000106       0x31 C:/Users/jon_000/Git/ALFRED_TEST/Release/arduino.ar(Print.cpp.o)
 .ARM.attributes
                0x00000137       0x31 C:/Users/jon_000/Git/ALFRED_TEST/Release/arduino.ar(RingBuffer.cpp.o)
 .ARM.attributes
                0x00000168       0x31 C:/Users/jon_000/Git/ALFRED_TEST/Release/arduino.ar(Stream.cpp.o)
 .ARM.attributes
                0x00000199       0x31 C:/Users/jon_000/Git/ALFRED_TEST/Release/arduino.ar(UARTClass.cpp.o)
 .ARM.attributes
                0x000001ca       0x31 C:/Users/jon_000/Git/ALFRED_TEST/Release/arduino.ar(USARTClass.cpp.o)
 .ARM.attributes
                0x000001fb       0x31 C:/Users/jon_000/Git/ALFRED_TEST/Release/arduino.ar(WString.cpp.o)
 .ARM.attributes
                0x0000022c       0x31 C:/Users/jon_000/Git/ALFRED_TEST/Release/arduino.ar(cxxabi-compat.cpp.o)
 .ARM.attributes
                0x0000025d       0x31 C:/Users/jon_000/Git/ALFRED_TEST/Release/arduino.ar(itoa.c.o)
 .ARM.attributes
                0x0000028e       0x31 C:/Users/jon_000/Git/ALFRED_TEST/Release/arduino.ar(wiring.c.o)
 .ARM.attributes
                0x000002bf       0x31 C:/Users/jon_000/Git/ALFRED_TEST/Release/arduino.ar(wiring_analog.c.o)
 .ARM.attributes
                0x000002f0       0x31 C:/Users/jon_000/Git/ALFRED_TEST/Release/arduino.ar(wiring_digital.c.o)
 .ARM.attributes
                0x00000321       0x31 C:/Users/jon_000/Git/ALFRED_TEST/Release/arduino.ar(dtostrf.c.o)
 .ARM.attributes
                0x00000352       0x31 C:/Users/jon_000/Git/ALFRED_TEST/Release/arduino.ar(hooks.c.o)
 .ARM.attributes
                0x00000383       0x31 C:/Arduino/hardware/arduino/sam/variants/arduino_due_x/libsam_sam3x8e_gcc_rel.a(pio.o)
 .ARM.attributes
                0x000003b4       0x31 C:/Arduino/hardware/arduino/sam/variants/arduino_due_x/libsam_sam3x8e_gcc_rel.a(pmc.o)
 .ARM.attributes
                0x000003e5       0x31 C:/Arduino/hardware/arduino/sam/variants/arduino_due_x/libsam_sam3x8e_gcc_rel.a(pwmc.o)
 .ARM.attributes
                0x00000416       0x31 C:/Arduino/hardware/arduino/sam/variants/arduino_due_x/libsam_sam3x8e_gcc_rel.a(tc.o)
 .ARM.attributes
                0x00000447       0x31 C:/Arduino/hardware/arduino/sam/variants/arduino_due_x/libsam_sam3x8e_gcc_rel.a(timetick.o)
 .ARM.attributes
                0x00000478       0x31 C:/Arduino/hardware/arduino/sam/variants/arduino_due_x/libsam_sam3x8e_gcc_rel.a(wdt.o)
 .ARM.attributes
                0x000004a9       0x31 C:/Arduino/hardware/arduino/sam/variants/arduino_due_x/libsam_sam3x8e_gcc_rel.a(system_sam3xa.o)
 .ARM.attributes
                0x000004da       0x31 C:/Arduino/hardware/arduino/sam/variants/arduino_due_x/libsam_sam3x8e_gcc_rel.a(startup_sam3xa.o)
 .ARM.attributes
                0x0000050b       0x31 C:/Arduino/hardware/arduino/sam/variants/arduino_due_x/libsam_sam3x8e_gcc_rel.a(adc.o)
 .ARM.attributes
                0x0000053c       0x31 C:/Arduino/hardware/arduino/sam/variants/arduino_due_x/libsam_sam3x8e_gcc_rel.a(uotghs.o)
 .ARM.attributes
                0x0000056d       0x31 C:/Arduino/hardware/arduino/sam/variants/arduino_due_x/libsam_sam3x8e_gcc_rel.a(dacc.o)
 .ARM.attributes
                0x0000059e       0x31 C:/Users/jon_000/Git/ALFRED_TEST/Release/arduino.ar(WInterrupts.c.o)
 .ARM.attributes
                0x000005cf       0x31 C:/Users/jon_000/Git/ALFRED_TEST/Release/arduino.ar(cortex_handlers.c.o)
 .ARM.attributes
                0x00000600       0x31 C:/Users/jon_000/Git/ALFRED_TEST/Release/arduino.ar(main.cpp.o)
 .ARM.attributes
                0x00000631       0x31 C:/Users/jon_000/Git/ALFRED_TEST/Release/arduino.ar(USBCore.cpp.o)
 .ARM.attributes
                0x00000662       0x31 C:/Users/jon_000/Git/ALFRED_TEST/Release/arduino.ar(Reset.cpp.o)
 .ARM.attributes
                0x00000693       0x31 C:/Users/jon_000/Git/ALFRED_TEST/Release/arduino.ar(CDC.cpp.o)
 .ARM.attributes
                0x000006c4       0x31 C:/Users/jon_000/Git/ALFRED_TEST/Release/arduino.ar(HID.cpp.o)
 .ARM.attributes
                0x000006f5       0x31 C:/Arduino/hardware/arduino/sam/variants/arduino_due_x/libsam_sam3x8e_gcc_rel.a(interrupt_sam_nvic.o)
 .ARM.attributes
                0x00000726       0x31 C:/Arduino/hardware/arduino/sam/variants/arduino_due_x/libsam_sam3x8e_gcc_rel.a(uotghs_device.o)
 .ARM.attributes
                0x00000757       0x29 c:/arduino/hardware/tools/g++_arm_none_eabi/bin/../lib/gcc/arm-none-eabi/4.4.1/../../../../arm-none-eabi/lib/thumb2\libm.a(lib_a-s_isinfd.o)
 .ARM.attributes
                0x00000780       0x29 c:/arduino/hardware/tools/g++_arm_none_eabi/bin/../lib/gcc/arm-none-eabi/4.4.1/../../../../arm-none-eabi/lib/thumb2\libm.a(lib_a-s_isnand.o)
 .ARM.attributes
                0x000007a9       0x1b c:/arduino/hardware/tools/g++_arm_none_eabi/bin/../lib/gcc/arm-none-eabi/4.4.1/thumb2\libgcc.a(_arm_addsubdf3.o)
 .ARM.attributes
                0x000007c4       0x1b c:/arduino/hardware/tools/g++_arm_none_eabi/bin/../lib/gcc/arm-none-eabi/4.4.1/thumb2\libgcc.a(_arm_muldivdf3.o)
 .ARM.attributes
                0x000007df       0x1b c:/arduino/hardware/tools/g++_arm_none_eabi/bin/../lib/gcc/arm-none-eabi/4.4.1/thumb2\libgcc.a(_arm_cmpdf2.o)
 .ARM.attributes
                0x000007fa       0x1b c:/arduino/hardware/tools/g++_arm_none_eabi/bin/../lib/gcc/arm-none-eabi/4.4.1/thumb2\libgcc.a(_arm_fixdfsi.o)
 .ARM.attributes
                0x00000815       0x1b c:/arduino/hardware/tools/g++_arm_none_eabi/bin/../lib/gcc/arm-none-eabi/4.4.1/thumb2\libgcc.a(_arm_fixunsdfsi.o)
 .ARM.attributes
                0x00000830       0x1b c:/arduino/hardware/tools/g++_arm_none_eabi/bin/../lib/gcc/arm-none-eabi/4.4.1/thumb2\libgcc.a(_arm_truncdfsf2.o)
 .ARM.attributes
                0x0000084b       0x1b c:/arduino/hardware/tools/g++_arm_none_eabi/bin/../lib/gcc/arm-none-eabi/4.4.1/thumb2\libgcc.a(_arm_addsubsf3.o)
 .ARM.attributes
                0x00000866       0x1b c:/arduino/hardware/tools/g++_arm_none_eabi/bin/../lib/gcc/arm-none-eabi/4.4.1/thumb2\libgcc.a(_arm_muldivsf3.o)
 .ARM.attributes
                0x00000881       0x1b c:/arduino/hardware/tools/g++_arm_none_eabi/bin/../lib/gcc/arm-none-eabi/4.4.1/thumb2\libgcc.a(_arm_cmpsf2.o)
 .ARM.attributes
                0x0000089c       0x29 c:/arduino/hardware/tools/g++_arm_none_eabi/bin/../lib/gcc/arm-none-eabi/4.4.1/../../../../arm-none-eabi/lib/thumb2\libc.a(lib_a-assert.o)
 .ARM.attributes
                0x000008c5       0x29 c:/arduino/hardware/tools/g++_arm_none_eabi/bin/../lib/gcc/arm-none-eabi/4.4.1/../../../../arm-none-eabi/lib/thumb2\libc.a(lib_a-atof.o)
 .ARM.attributes
                0x000008ee       0x29 c:/arduino/hardware/tools/g++_arm_none_eabi/bin/../lib/gcc/arm-none-eabi/4.4.1/../../../../arm-none-eabi/lib/thumb2\libc.a(lib_a-atol.o)
 .ARM.attributes
                0x00000917       0x29 c:/arduino/hardware/tools/g++_arm_none_eabi/bin/../lib/gcc/arm-none-eabi/4.4.1/../../../../arm-none-eabi/lib/thumb2\libc.a(lib_a-fiprintf.o)
 .ARM.attributes
                0x00000940       0x29 c:/arduino/hardware/tools/g++_arm_none_eabi/bin/../lib/gcc/arm-none-eabi/4.4.1/../../../../arm-none-eabi/lib/thumb2\libc.a(lib_a-impure.o)
 .ARM.attributes
                0x00000969       0x29 c:/arduino/hardware/tools/g++_arm_none_eabi/bin/../lib/gcc/arm-none-eabi/4.4.1/../../../../arm-none-eabi/lib/thumb2\libc.a(lib_a-init.o)
 .ARM.attributes
                0x00000992       0x29 c:/arduino/hardware/tools/g++_arm_none_eabi/bin/../lib/gcc/arm-none-eabi/4.4.1/../../../../arm-none-eabi/lib/thumb2\libc.a(lib_a-iprintf.o)
 .ARM.attributes
                0x000009bb       0x29 c:/arduino/hardware/tools/g++_arm_none_eabi/bin/../lib/gcc/arm-none-eabi/4.4.1/../../../../arm-none-eabi/lib/thumb2\libc.a(lib_a-isspace.o)
 .ARM.attributes
                0x000009e4       0x29 c:/arduino/hardware/tools/g++_arm_none_eabi/bin/../lib/gcc/arm-none-eabi/4.4.1/../../../../arm-none-eabi/lib/thumb2\libc.a(lib_a-malloc.o)
 .ARM.attributes
                0x00000a0d       0x29 c:/arduino/hardware/tools/g++_arm_none_eabi/bin/../lib/gcc/arm-none-eabi/4.4.1/../../../../arm-none-eabi/lib/thumb2\libc.a(lib_a-mallocr.o)
 .ARM.attributes
                0x00000a36       0x29 c:/arduino/hardware/tools/g++_arm_none_eabi/bin/../lib/gcc/arm-none-eabi/4.4.1/../../../../arm-none-eabi/lib/thumb2\libc.a(lib_a-memcpy.o)
 .ARM.attributes
                0x00000a5f       0x29 c:/arduino/hardware/tools/g++_arm_none_eabi/bin/../lib/gcc/arm-none-eabi/4.4.1/../../../../arm-none-eabi/lib/thumb2\libc.a(lib_a-memmove.o)
 .ARM.attributes
                0x00000a88       0x29 c:/arduino/hardware/tools/g++_arm_none_eabi/bin/../lib/gcc/arm-none-eabi/4.4.1/../../../../arm-none-eabi/lib/thumb2\libc.a(lib_a-memset.o)
 .ARM.attributes
                0x00000ab1       0x29 c:/arduino/hardware/tools/g++_arm_none_eabi/bin/../lib/gcc/arm-none-eabi/4.4.1/../../../../arm-none-eabi/lib/thumb2\libc.a(lib_a-mlock.o)
 .ARM.attributes
                0x00000ada       0x29 c:/arduino/hardware/tools/g++_arm_none_eabi/bin/../lib/gcc/arm-none-eabi/4.4.1/../../../../arm-none-eabi/lib/thumb2\libc.a(lib_a-realloc.o)
 .ARM.attributes
                0x00000b03       0x29 c:/arduino/hardware/tools/g++_arm_none_eabi/bin/../lib/gcc/arm-none-eabi/4.4.1/../../../../arm-none-eabi/lib/thumb2\libc.a(lib_a-reallocr.o)
 .ARM.attributes
                0x00000b2c       0x29 c:/arduino/hardware/tools/g++_arm_none_eabi/bin/../lib/gcc/arm-none-eabi/4.4.1/../../../../arm-none-eabi/lib/thumb2\libc.a(lib_a-sbrkr.o)
 .ARM.attributes
                0x00000b55       0x29 c:/arduino/hardware/tools/g++_arm_none_eabi/bin/../lib/gcc/arm-none-eabi/4.4.1/../../../../arm-none-eabi/lib/thumb2\libc.a(lib_a-sprintf.o)
 .ARM.attributes
                0x00000b7e       0x29 c:/arduino/hardware/tools/g++_arm_none_eabi/bin/../lib/gcc/arm-none-eabi/4.4.1/../../../../arm-none-eabi/lib/thumb2\libc.a(lib_a-strchr.o)
 .ARM.attributes
                0x00000ba7       0x29 c:/arduino/hardware/tools/g++_arm_none_eabi/bin/../lib/gcc/arm-none-eabi/4.4.1/../../../../arm-none-eabi/lib/thumb2\libc.a(lib_a-strcmp.o)
 .ARM.attributes
                0x00000bd0       0x29 c:/arduino/hardware/tools/g++_arm_none_eabi/bin/../lib/gcc/arm-none-eabi/4.4.1/../../../../arm-none-eabi/lib/thumb2\libc.a(lib_a-strcpy.o)
 .ARM.attributes
                0x00000bf9       0x29 c:/arduino/hardware/tools/g++_arm_none_eabi/bin/../lib/gcc/arm-none-eabi/4.4.1/../../../../arm-none-eabi/lib/thumb2\libc.a(lib_a-strlen.o)
 .ARM.attributes
                0x00000c22       0x29 c:/arduino/hardware/tools/g++_arm_none_eabi/bin/../lib/gcc/arm-none-eabi/4.4.1/../../../../arm-none-eabi/lib/thumb2\libc.a(lib_a-strncmp.o)
 .ARM.attributes
                0x00000c4b       0x29 c:/arduino/hardware/tools/g++_arm_none_eabi/bin/../lib/gcc/arm-none-eabi/4.4.1/../../../../arm-none-eabi/lib/thumb2\libc.a(lib_a-strncpy.o)
 .ARM.attributes
                0x00000c74       0x29 c:/arduino/hardware/tools/g++_arm_none_eabi/bin/../lib/gcc/arm-none-eabi/4.4.1/../../../../arm-none-eabi/lib/thumb2\libc.a(lib_a-strrchr.o)
 .ARM.attributes
                0x00000c9d       0x29 c:/arduino/hardware/tools/g++_arm_none_eabi/bin/../lib/gcc/arm-none-eabi/4.4.1/../../../../arm-none-eabi/lib/thumb2\libc.a(lib_a-strstr.o)
 .ARM.attributes
                0x00000cc6       0x29 c:/arduino/hardware/tools/g++_arm_none_eabi/bin/../lib/gcc/arm-none-eabi/4.4.1/../../../../arm-none-eabi/lib/thumb2\libc.a(lib_a-strtod.o)
 .ARM.attributes
                0x00000cef       0x29 c:/arduino/hardware/tools/g++_arm_none_eabi/bin/../lib/gcc/arm-none-eabi/4.4.1/../../../../arm-none-eabi/lib/thumb2\libc.a(lib_a-strtol.o)
 .ARM.attributes
                0x00000d18       0x29 c:/arduino/hardware/tools/g++_arm_none_eabi/bin/../lib/gcc/arm-none-eabi/4.4.1/../../../../arm-none-eabi/lib/thumb2\libc.a(lib_a-svfprintf.o)
 .ARM.attributes
                0x00000d41       0x29 c:/arduino/hardware/tools/g++_arm_none_eabi/bin/../lib/gcc/arm-none-eabi/4.4.1/../../../../arm-none-eabi/lib/thumb2\libc.a(lib_a-tolower.o)
 .ARM.attributes
                0x00000d6a       0x29 c:/arduino/hardware/tools/g++_arm_none_eabi/bin/../lib/gcc/arm-none-eabi/4.4.1/../../../../arm-none-eabi/lib/thumb2\libc.a(lib_a-toupper.o)
 .ARM.attributes
                0x00000d93       0x29 c:/arduino/hardware/tools/g++_arm_none_eabi/bin/../lib/gcc/arm-none-eabi/4.4.1/../../../../arm-none-eabi/lib/thumb2\libc.a(lib_a-vfiprintf.o)
 .ARM.attributes
                0x00000dbc       0x29 c:/arduino/hardware/tools/g++_arm_none_eabi/bin/../lib/gcc/arm-none-eabi/4.4.1/../../../../arm-none-eabi/lib/thumb2\libc.a(lib_a-wsetup.o)
 .ARM.attributes
                0x00000de5       0x29 c:/arduino/hardware/tools/g++_arm_none_eabi/bin/../lib/gcc/arm-none-eabi/4.4.1/../../../../arm-none-eabi/lib/thumb2\libc.a(lib_a-abort.o)
 .ARM.attributes
                0x00000e0e       0x29 c:/arduino/hardware/tools/g++_arm_none_eabi/bin/../lib/gcc/arm-none-eabi/4.4.1/../../../../arm-none-eabi/lib/thumb2\libc.a(lib_a-ctype_.o)
 .ARM.attributes
                0x00000e37       0x29 c:/arduino/hardware/tools/g++_arm_none_eabi/bin/../lib/gcc/arm-none-eabi/4.4.1/../../../../arm-none-eabi/lib/thumb2\libc.a(lib_a-dtoa.o)
 .ARM.attributes
                0x00000e60       0x29 c:/arduino/hardware/tools/g++_arm_none_eabi/bin/../lib/gcc/arm-none-eabi/4.4.1/../../../../arm-none-eabi/lib/thumb2\libc.a(lib_a-fflush.o)
 .ARM.attributes
                0x00000e89       0x29 c:/arduino/hardware/tools/g++_arm_none_eabi/bin/../lib/gcc/arm-none-eabi/4.4.1/../../../../arm-none-eabi/lib/thumb2\libc.a(lib_a-findfp.o)
 .ARM.attributes
                0x00000eb2       0x29 c:/arduino/hardware/tools/g++_arm_none_eabi/bin/../lib/gcc/arm-none-eabi/4.4.1/../../../../arm-none-eabi/lib/thumb2\libc.a(lib_a-freer.o)
 .ARM.attributes
                0x00000edb       0x29 c:/arduino/hardware/tools/g++_arm_none_eabi/bin/../lib/gcc/arm-none-eabi/4.4.1/../../../../arm-none-eabi/lib/thumb2\libc.a(lib_a-fvwrite.o)
 .ARM.attributes
                0x00000f04       0x29 c:/arduino/hardware/tools/g++_arm_none_eabi/bin/../lib/gcc/arm-none-eabi/4.4.1/../../../../arm-none-eabi/lib/thumb2\libc.a(lib_a-fwalk.o)
 .ARM.attributes
                0x00000f2d       0x29 c:/arduino/hardware/tools/g++_arm_none_eabi/bin/../lib/gcc/arm-none-eabi/4.4.1/../../../../arm-none-eabi/lib/thumb2\libc.a(lib_a-gdtoa-gethex.o)
 .ARM.attributes
                0x00000f56       0x29 c:/arduino/hardware/tools/g++_arm_none_eabi/bin/../lib/gcc/arm-none-eabi/4.4.1/../../../../arm-none-eabi/lib/thumb2\libc.a(lib_a-gdtoa-hexnan.o)
 .ARM.attributes
                0x00000f7f       0x29 c:/arduino/hardware/tools/g++_arm_none_eabi/bin/../lib/gcc/arm-none-eabi/4.4.1/../../../../arm-none-eabi/lib/thumb2\libc.a(lib_a-locale.o)
 .ARM.attributes
                0x00000fa8       0x29 c:/arduino/hardware/tools/g++_arm_none_eabi/bin/../lib/gcc/arm-none-eabi/4.4.1/../../../../arm-none-eabi/lib/thumb2\libc.a(lib_a-makebuf.o)
 .ARM.attributes
                0x00000fd1       0x29 c:/arduino/hardware/tools/g++_arm_none_eabi/bin/../lib/gcc/arm-none-eabi/4.4.1/../../../../arm-none-eabi/lib/thumb2\libc.a(lib_a-memchr.o)
 .ARM.attributes
                0x00000ffa       0x29 c:/arduino/hardware/tools/g++_arm_none_eabi/bin/../lib/gcc/arm-none-eabi/4.4.1/../../../../arm-none-eabi/lib/thumb2\libc.a(lib_a-memcmp.o)
 .ARM.attributes
                0x00001023       0x29 c:/arduino/hardware/tools/g++_arm_none_eabi/bin/../lib/gcc/arm-none-eabi/4.4.1/../../../../arm-none-eabi/lib/thumb2\libc.a(lib_a-mprec.o)
 .ARM.attributes
                0x0000104c       0x29 c:/arduino/hardware/tools/g++_arm_none_eabi/bin/../lib/gcc/arm-none-eabi/4.4.1/../../../../arm-none-eabi/lib/thumb2\libc.a(lib_a-reent.o)
 .ARM.attributes
                0x00001075       0x29 c:/arduino/hardware/tools/g++_arm_none_eabi/bin/../lib/gcc/arm-none-eabi/4.4.1/../../../../arm-none-eabi/lib/thumb2\libc.a(lib_a-signal.o)
 .ARM.attributes
                0x0000109e       0x29 c:/arduino/hardware/tools/g++_arm_none_eabi/bin/../lib/gcc/arm-none-eabi/4.4.1/../../../../arm-none-eabi/lib/thumb2\libc.a(lib_a-signalr.o)
 .ARM.attributes
                0x000010c7       0x29 c:/arduino/hardware/tools/g++_arm_none_eabi/bin/../lib/gcc/arm-none-eabi/4.4.1/../../../../arm-none-eabi/lib/thumb2\libc.a(lib_a-stdio.o)
 .ARM.attributes
                0x000010f0       0x29 c:/arduino/hardware/tools/g++_arm_none_eabi/bin/../lib/gcc/arm-none-eabi/4.4.1/../../../../arm-none-eabi/lib/thumb2\libc.a(lib_a-writer.o)
 .ARM.attributes
                0x00001119       0x29 c:/arduino/hardware/tools/g++_arm_none_eabi/bin/../lib/gcc/arm-none-eabi/4.4.1/../../../../arm-none-eabi/lib/thumb2\libc.a(lib_a-callocr.o)
 .ARM.attributes
                0x00001142       0x29 c:/arduino/hardware/tools/g++_arm_none_eabi/bin/../lib/gcc/arm-none-eabi/4.4.1/../../../../arm-none-eabi/lib/thumb2\libc.a(lib_a-closer.o)
 .ARM.attributes
                0x0000116b       0x29 c:/arduino/hardware/tools/g++_arm_none_eabi/bin/../lib/gcc/arm-none-eabi/4.4.1/../../../../arm-none-eabi/lib/thumb2\libc.a(lib_a-fclose.o)
 .ARM.attributes
                0x00001194       0x29 c:/arduino/hardware/tools/g++_arm_none_eabi/bin/../lib/gcc/arm-none-eabi/4.4.1/../../../../arm-none-eabi/lib/thumb2\libc.a(lib_a-fstatr.o)
 .ARM.attributes
                0x000011bd       0x29 c:/arduino/hardware/tools/g++_arm_none_eabi/bin/../lib/gcc/arm-none-eabi/4.4.1/../../../../arm-none-eabi/lib/thumb2\libc.a(lib_a-isattyr.o)
 .ARM.attributes
                0x000011e6       0x29 c:/arduino/hardware/tools/g++_arm_none_eabi/bin/../lib/gcc/arm-none-eabi/4.4.1/../../../../arm-none-eabi/lib/thumb2\libc.a(lib_a-lseekr.o)
 .ARM.attributes
                0x0000120f       0x29 c:/arduino/hardware/tools/g++_arm_none_eabi/bin/../lib/gcc/arm-none-eabi/4.4.1/../../../../arm-none-eabi/lib/thumb2\libc.a(lib_a-readr.o)
 .ARM.attributes
                0x00001238       0x1b c:/arduino/hardware/tools/g++_arm_none_eabi/bin/../lib/gcc/arm-none-eabi/4.4.1/thumb2\libgcc.a(_udivsi3.o)
 .ARM.attributes
                0x00001253       0x1b c:/arduino/hardware/tools/g++_arm_none_eabi/bin/../lib/gcc/arm-none-eabi/4.4.1/thumb2\libgcc.a(_dvmd_tls.o)
 .ARM.attributes
                0x0000126e       0x1b c:/arduino/hardware/tools/g++_arm_none_eabi/bin/../lib/gcc/arm-none-eabi/4.4.1/thumb2\libgcc.a(_aeabi_uldivmod.o)
 .ARM.attributes
                0x00001289       0x29 c:/arduino/hardware/tools/g++_arm_none_eabi/bin/../lib/gcc/arm-none-eabi/4.4.1/thumb2\libgcc.a(bpabi.o)
 .ARM.attributes
                0x000012b2       0x29 c:/arduino/hardware/tools/g++_arm_none_eabi/bin/../lib/gcc/arm-none-eabi/4.4.1/thumb2\libgcc.a(_divdi3.o)
 .ARM.attributes
                0x000012db       0x29 c:/arduino/hardware/tools/g++_arm_none_eabi/bin/../lib/gcc/arm-none-eabi/4.4.1/thumb2\libgcc.a(_udivdi3.o)
 .ARM.attributes
                0x00001304       0x29 c:/arduino/hardware/tools/g++_arm_none_eabi/bin/../lib/gcc/arm-none-eabi/4.4.1/thumb2/crtend.o
 .ARM.attributes
                0x0000132d       0x19 c:/arduino/hardware/tools/g++_arm_none_eabi/bin/../lib/gcc/arm-none-eabi/4.4.1/thumb2/crtn.o

.comment        0x00000000      0x432
 .comment       0x00000000       0x2b C:/Users/jon_000/Git/ALFRED_TEST/Release/arduino/syscalls_sam3.c.o
 .comment       0x0000002b       0x2b ./ALFRED_TEST.cpp.o
 .comment       0x00000056       0x2b ./Libraries/DueTimer/DueTimer.cpp.o
 .comment       0x00000081       0x2b C:/Users/jon_000/Git/ALFRED_TEST/Release/arduino.ar(variant.cpp.o)
 .comment       0x000000ac       0x2b C:/Users/jon_000/Git/ALFRED_TEST/Release/arduino.ar(Print.cpp.o)
 .comment       0x000000d7       0x2b C:/Users/jon_000/Git/ALFRED_TEST/Release/arduino.ar(RingBuffer.cpp.o)
 .comment       0x00000102       0x2b C:/Users/jon_000/Git/ALFRED_TEST/Release/arduino.ar(Stream.cpp.o)
 .comment       0x0000012d       0x2b C:/Users/jon_000/Git/ALFRED_TEST/Release/arduino.ar(UARTClass.cpp.o)
 .comment       0x00000158       0x2b C:/Users/jon_000/Git/ALFRED_TEST/Release/arduino.ar(USARTClass.cpp.o)
 .comment       0x00000183       0x2b C:/Users/jon_000/Git/ALFRED_TEST/Release/arduino.ar(WString.cpp.o)
 .comment       0x000001ae       0x2b C:/Users/jon_000/Git/ALFRED_TEST/Release/arduino.ar(cxxabi-compat.cpp.o)
 .comment       0x000001d9       0x2b C:/Users/jon_000/Git/ALFRED_TEST/Release/arduino.ar(itoa.c.o)
 .comment       0x00000204       0x2b C:/Users/jon_000/Git/ALFRED_TEST/Release/arduino.ar(wiring.c.o)
 .comment       0x0000022f       0x2b C:/Users/jon_000/Git/ALFRED_TEST/Release/arduino.ar(wiring_analog.c.o)
 .comment       0x0000025a       0x2b C:/Users/jon_000/Git/ALFRED_TEST/Release/arduino.ar(wiring_digital.c.o)
 .comment       0x00000285       0x2b C:/Users/jon_000/Git/ALFRED_TEST/Release/arduino.ar(dtostrf.c.o)
 .comment       0x000002b0       0x2b C:/Users/jon_000/Git/ALFRED_TEST/Release/arduino.ar(hooks.c.o)
 .comment       0x000002db       0x2a C:/Arduino/hardware/arduino/sam/variants/arduino_due_x/libsam_sam3x8e_gcc_rel.a(pio.o)
                                 0x2b (size before relaxing)
 .comment       0x00000000       0x2b C:/Arduino/hardware/arduino/sam/variants/arduino_due_x/libsam_sam3x8e_gcc_rel.a(pmc.o)
 .comment       0x00000000       0x2b C:/Arduino/hardware/arduino/sam/variants/arduino_due_x/libsam_sam3x8e_gcc_rel.a(pwmc.o)
 .comment       0x00000000       0x2b C:/Arduino/hardware/arduino/sam/variants/arduino_due_x/libsam_sam3x8e_gcc_rel.a(tc.o)
 .comment       0x00000000       0x2b C:/Arduino/hardware/arduino/sam/variants/arduino_due_x/libsam_sam3x8e_gcc_rel.a(timetick.o)
 .comment       0x00000000       0x2b C:/Arduino/hardware/arduino/sam/variants/arduino_due_x/libsam_sam3x8e_gcc_rel.a(wdt.o)
 .comment       0x00000000       0x2b C:/Arduino/hardware/arduino/sam/variants/arduino_due_x/libsam_sam3x8e_gcc_rel.a(system_sam3xa.o)
 .comment       0x00000000       0x2b C:/Arduino/hardware/arduino/sam/variants/arduino_due_x/libsam_sam3x8e_gcc_rel.a(startup_sam3xa.o)
 .comment       0x00000000       0x2b C:/Arduino/hardware/arduino/sam/variants/arduino_due_x/libsam_sam3x8e_gcc_rel.a(adc.o)
 .comment       0x00000000       0x2b C:/Arduino/hardware/arduino/sam/variants/arduino_due_x/libsam_sam3x8e_gcc_rel.a(uotghs.o)
 .comment       0x00000000       0x2b C:/Arduino/hardware/arduino/sam/variants/arduino_due_x/libsam_sam3x8e_gcc_rel.a(dacc.o)
 .comment       0x00000305       0x2b C:/Users/jon_000/Git/ALFRED_TEST/Release/arduino.ar(WInterrupts.c.o)
 .comment       0x00000330       0x2b C:/Users/jon_000/Git/ALFRED_TEST/Release/arduino.ar(cortex_handlers.c.o)
 .comment       0x0000035b       0x2b C:/Users/jon_000/Git/ALFRED_TEST/Release/arduino.ar(main.cpp.o)
 .comment       0x00000386       0x2b C:/Users/jon_000/Git/ALFRED_TEST/Release/arduino.ar(USBCore.cpp.o)
 .comment       0x000003b1       0x2b C:/Users/jon_000/Git/ALFRED_TEST/Release/arduino.ar(Reset.cpp.o)
 .comment       0x000003dc       0x2b C:/Users/jon_000/Git/ALFRED_TEST/Release/arduino.ar(CDC.cpp.o)
 .comment       0x00000407       0x2b C:/Users/jon_000/Git/ALFRED_TEST/Release/arduino.ar(HID.cpp.o)
 .comment       0x00000000       0x2b C:/Arduino/hardware/arduino/sam/variants/arduino_due_x/libsam_sam3x8e_gcc_rel.a(interrupt_sam_nvic.o)
 .comment       0x00000000       0x2b C:/Arduino/hardware/arduino/sam/variants/arduino_due_x/libsam_sam3x8e_gcc_rel.a(uotghs_device.o)

.debug_abbrev   0x00000000     0x3848
 .debug_abbrev  0x00000000      0x169 C:/Users/jon_000/Git/ALFRED_TEST/Release/arduino/syscalls_sam3.c.o
 .debug_abbrev  0x00000169      0x2bd ./ALFRED_TEST.cpp.o
 .debug_abbrev  0x00000426      0x3d3 ./Libraries/DueTimer/DueTimer.cpp.o
 .debug_abbrev  0x000007f9      0x2a6 C:/Users/jon_000/Git/ALFRED_TEST/Release/arduino.ar(variant.cpp.o)
 .debug_abbrev  0x00000a9f      0x32e C:/Users/jon_000/Git/ALFRED_TEST/Release/arduino.ar(Print.cpp.o)
 .debug_abbrev  0x00000dcd      0x139 C:/Users/jon_000/Git/ALFRED_TEST/Release/arduino.ar(RingBuffer.cpp.o)
 .debug_abbrev  0x00000f06      0x348 C:/Users/jon_000/Git/ALFRED_TEST/Release/arduino.ar(Stream.cpp.o)
 .debug_abbrev  0x0000124e      0x3c8 C:/Users/jon_000/Git/ALFRED_TEST/Release/arduino.ar(UARTClass.cpp.o)
 .debug_abbrev  0x00001616      0x3c8 C:/Users/jon_000/Git/ALFRED_TEST/Release/arduino.ar(USARTClass.cpp.o)
 .debug_abbrev  0x000019de      0x35c C:/Users/jon_000/Git/ALFRED_TEST/Release/arduino.ar(WString.cpp.o)
 .debug_abbrev  0x00001d3a       0x27 C:/Users/jon_000/Git/ALFRED_TEST/Release/arduino.ar(cxxabi-compat.cpp.o)
 .debug_abbrev  0x00001d61       0xe0 C:/Users/jon_000/Git/ALFRED_TEST/Release/arduino.ar(itoa.c.o)
 .debug_abbrev  0x00001e41      0x14c C:/Users/jon_000/Git/ALFRED_TEST/Release/arduino.ar(wiring.c.o)
 .debug_abbrev  0x00001f8d      0x28f C:/Users/jon_000/Git/ALFRED_TEST/Release/arduino.ar(wiring_analog.c.o)
 .debug_abbrev  0x0000221c      0x146 C:/Users/jon_000/Git/ALFRED_TEST/Release/arduino.ar(wiring_digital.c.o)
 .debug_abbrev  0x00002362       0x98 C:/Users/jon_000/Git/ALFRED_TEST/Release/arduino.ar(dtostrf.c.o)
 .debug_abbrev  0x000023fa       0x43 C:/Users/jon_000/Git/ALFRED_TEST/Release/arduino.ar(hooks.c.o)
 .debug_abbrev  0x0000243d      0x265 C:/Users/jon_000/Git/ALFRED_TEST/Release/arduino.ar(WInterrupts.c.o)
 .debug_abbrev  0x000026a2       0xc9 C:/Users/jon_000/Git/ALFRED_TEST/Release/arduino.ar(cortex_handlers.c.o)
 .debug_abbrev  0x0000276b       0xff C:/Users/jon_000/Git/ALFRED_TEST/Release/arduino.ar(main.cpp.o)
 .debug_abbrev  0x0000286a      0x507 C:/Users/jon_000/Git/ALFRED_TEST/Release/arduino.ar(USBCore.cpp.o)
 .debug_abbrev  0x00002d71      0x155 C:/Users/jon_000/Git/ALFRED_TEST/Release/arduino.ar(Reset.cpp.o)
 .debug_abbrev  0x00002ec6      0x4d6 C:/Users/jon_000/Git/ALFRED_TEST/Release/arduino.ar(CDC.cpp.o)
 .debug_abbrev  0x0000339c      0x4ac C:/Users/jon_000/Git/ALFRED_TEST/Release/arduino.ar(HID.cpp.o)

.debug_info     0x00000000    0x15061
 .debug_info    0x00000000      0x5fb C:/Users/jon_000/Git/ALFRED_TEST/Release/arduino/syscalls_sam3.c.o
 .debug_info    0x000005fb      0x94e ./ALFRED_TEST.cpp.o
 .debug_info    0x00000f49      0xe53 ./Libraries/DueTimer/DueTimer.cpp.o
 .debug_info    0x00001d9c     0x1288 C:/Users/jon_000/Git/ALFRED_TEST/Release/arduino.ar(variant.cpp.o)
 .debug_info    0x00003024     0x1b78 C:/Users/jon_000/Git/ALFRED_TEST/Release/arduino.ar(Print.cpp.o)
 .debug_info    0x00004b9c      0x195 C:/Users/jon_000/Git/ALFRED_TEST/Release/arduino.ar(RingBuffer.cpp.o)
 .debug_info    0x00004d31     0x16a3 C:/Users/jon_000/Git/ALFRED_TEST/Release/arduino.ar(Stream.cpp.o)
 .debug_info    0x000063d4     0x1b8a C:/Users/jon_000/Git/ALFRED_TEST/Release/arduino.ar(UARTClass.cpp.o)
 .debug_info    0x00007f5e     0x1c72 C:/Users/jon_000/Git/ALFRED_TEST/Release/arduino.ar(USARTClass.cpp.o)
 .debug_info    0x00009bd0     0x2af9 C:/Users/jon_000/Git/ALFRED_TEST/Release/arduino.ar(WString.cpp.o)
 .debug_info    0x0000c6c9       0x38 C:/Users/jon_000/Git/ALFRED_TEST/Release/arduino.ar(cxxabi-compat.cpp.o)
 .debug_info    0x0000c701      0x23f C:/Users/jon_000/Git/ALFRED_TEST/Release/arduino.ar(itoa.c.o)
 .debug_info    0x0000c940      0x4a8 C:/Users/jon_000/Git/ALFRED_TEST/Release/arduino.ar(wiring.c.o)
 .debug_info    0x0000cde8     0x16aa C:/Users/jon_000/Git/ALFRED_TEST/Release/arduino.ar(wiring_analog.c.o)
 .debug_info    0x0000e492      0x8bc C:/Users/jon_000/Git/ALFRED_TEST/Release/arduino.ar(wiring_digital.c.o)
 .debug_info    0x0000ed4e       0xc2 C:/Users/jon_000/Git/ALFRED_TEST/Release/arduino.ar(dtostrf.c.o)
 .debug_info    0x0000ee10       0x64 C:/Users/jon_000/Git/ALFRED_TEST/Release/arduino.ar(hooks.c.o)
 .debug_info    0x0000ee74     0x1161 C:/Users/jon_000/Git/ALFRED_TEST/Release/arduino.ar(WInterrupts.c.o)
 .debug_info    0x0000ffd5      0x233 C:/Users/jon_000/Git/ALFRED_TEST/Release/arduino.ar(cortex_handlers.c.o)
 .debug_info    0x00010208      0x2a6 C:/Users/jon_000/Git/ALFRED_TEST/Release/arduino.ar(main.cpp.o)
 .debug_info    0x000104ae     0x1602 C:/Users/jon_000/Git/ALFRED_TEST/Release/arduino.ar(USBCore.cpp.o)
 .debug_info    0x00011ab0      0x36c C:/Users/jon_000/Git/ALFRED_TEST/Release/arduino.ar(Reset.cpp.o)
 .debug_info    0x00011e1c     0x2402 C:/Users/jon_000/Git/ALFRED_TEST/Release/arduino.ar(CDC.cpp.o)
 .debug_info    0x0001421e      0xe43 C:/Users/jon_000/Git/ALFRED_TEST/Release/arduino.ar(HID.cpp.o)

.debug_line     0x00000000     0x5071
 .debug_line    0x00000000      0x2ef C:/Users/jon_000/Git/ALFRED_TEST/Release/arduino/syscalls_sam3.c.o
 .debug_line    0x000002ef      0x342 ./ALFRED_TEST.cpp.o
 .debug_line    0x00000631      0x47a ./Libraries/DueTimer/DueTimer.cpp.o
 .debug_line    0x00000aab      0x415 C:/Users/jon_000/Git/ALFRED_TEST/Release/arduino.ar(variant.cpp.o)
 .debug_line    0x00000ec0      0x50f C:/Users/jon_000/Git/ALFRED_TEST/Release/arduino.ar(Print.cpp.o)
 .debug_line    0x000013cf      0x12d C:/Users/jon_000/Git/ALFRED_TEST/Release/arduino.ar(RingBuffer.cpp.o)
 .debug_line    0x000014fc      0x47d C:/Users/jon_000/Git/ALFRED_TEST/Release/arduino.ar(Stream.cpp.o)
 .debug_line    0x00001979      0x435 C:/Users/jon_000/Git/ALFRED_TEST/Release/arduino.ar(UARTClass.cpp.o)
 .debug_line    0x00001dae      0x438 C:/Users/jon_000/Git/ALFRED_TEST/Release/arduino.ar(USARTClass.cpp.o)
 .debug_line    0x000021e6      0x908 C:/Users/jon_000/Git/ALFRED_TEST/Release/arduino.ar(WString.cpp.o)
 .debug_line    0x00002aee       0x6f C:/Users/jon_000/Git/ALFRED_TEST/Release/arduino.ar(cxxabi-compat.cpp.o)
 .debug_line    0x00002b5d       0xca C:/Users/jon_000/Git/ALFRED_TEST/Release/arduino.ar(itoa.c.o)
 .debug_line    0x00002c27      0x1f0 C:/Users/jon_000/Git/ALFRED_TEST/Release/arduino.ar(wiring.c.o)
 .debug_line    0x00002e17      0x3c9 C:/Users/jon_000/Git/ALFRED_TEST/Release/arduino.ar(wiring_analog.c.o)
 .debug_line    0x000031e0      0x286 C:/Users/jon_000/Git/ALFRED_TEST/Release/arduino.ar(wiring_digital.c.o)
 .debug_line    0x00003466       0x71 C:/Users/jon_000/Git/ALFRED_TEST/Release/arduino.ar(dtostrf.c.o)
 .debug_line    0x000034d7       0x85 C:/Users/jon_000/Git/ALFRED_TEST/Release/arduino.ar(hooks.c.o)
 .debug_line    0x0000355c      0x3a7 C:/Users/jon_000/Git/ALFRED_TEST/Release/arduino.ar(WInterrupts.c.o)
 .debug_line    0x00003903      0x1fb C:/Users/jon_000/Git/ALFRED_TEST/Release/arduino.ar(cortex_handlers.c.o)
 .debug_line    0x00003afe      0x202 C:/Users/jon_000/Git/ALFRED_TEST/Release/arduino.ar(main.cpp.o)
 .debug_line    0x00003d00      0x600 C:/Users/jon_000/Git/ALFRED_TEST/Release/arduino.ar(USBCore.cpp.o)
 .debug_line    0x00004300      0x2eb C:/Users/jon_000/Git/ALFRED_TEST/Release/arduino.ar(Reset.cpp.o)
 .debug_line    0x000045eb      0x572 C:/Users/jon_000/Git/ALFRED_TEST/Release/arduino.ar(CDC.cpp.o)
 .debug_line    0x00004b5d      0x514 C:/Users/jon_000/Git/ALFRED_TEST/Release/arduino.ar(HID.cpp.o)

.debug_loc      0x00000000     0x551a
 .debug_loc     0x00000000       0xf4 C:/Users/jon_000/Git/ALFRED_TEST/Release/arduino/syscalls_sam3.c.o
 .debug_loc     0x000000f4      0x11d ./ALFRED_TEST.cpp.o
 .debug_loc     0x00000211      0x477 ./Libraries/DueTimer/DueTimer.cpp.o
 .debug_loc     0x00000688       0x70 C:/Users/jon_000/Git/ALFRED_TEST/Release/arduino.ar(variant.cpp.o)
 .debug_loc     0x000006f8      0xa36 C:/Users/jon_000/Git/ALFRED_TEST/Release/arduino.ar(Print.cpp.o)
 .debug_loc     0x0000112e       0x99 C:/Users/jon_000/Git/ALFRED_TEST/Release/arduino.ar(RingBuffer.cpp.o)
 .debug_loc     0x000011c7      0x6d1 C:/Users/jon_000/Git/ALFRED_TEST/Release/arduino.ar(Stream.cpp.o)
 .debug_loc     0x00001898      0x1cc C:/Users/jon_000/Git/ALFRED_TEST/Release/arduino.ar(UARTClass.cpp.o)
 .debug_loc     0x00001a64      0x1cc C:/Users/jon_000/Git/ALFRED_TEST/Release/arduino.ar(USARTClass.cpp.o)
 .debug_loc     0x00001c30     0x212d C:/Users/jon_000/Git/ALFRED_TEST/Release/arduino.ar(WString.cpp.o)
 .debug_loc     0x00003d5d      0x2b1 C:/Users/jon_000/Git/ALFRED_TEST/Release/arduino.ar(itoa.c.o)
 .debug_loc     0x0000400e       0xc1 C:/Users/jon_000/Git/ALFRED_TEST/Release/arduino.ar(wiring.c.o)
 .debug_loc     0x000040cf      0x23a C:/Users/jon_000/Git/ALFRED_TEST/Release/arduino.ar(wiring_analog.c.o)
 .debug_loc     0x00004309      0x114 C:/Users/jon_000/Git/ALFRED_TEST/Release/arduino.ar(wiring_digital.c.o)
 .debug_loc     0x0000441d       0x89 C:/Users/jon_000/Git/ALFRED_TEST/Release/arduino.ar(dtostrf.c.o)
 .debug_loc     0x000044a6      0x113 C:/Users/jon_000/Git/ALFRED_TEST/Release/arduino.ar(WInterrupts.c.o)
 .debug_loc     0x000045b9       0x1f C:/Users/jon_000/Git/ALFRED_TEST/Release/arduino.ar(cortex_handlers.c.o)
 .debug_loc     0x000045d8       0x1f C:/Users/jon_000/Git/ALFRED_TEST/Release/arduino.ar(main.cpp.o)
 .debug_loc     0x000045f7      0x6e4 C:/Users/jon_000/Git/ALFRED_TEST/Release/arduino.ar(USBCore.cpp.o)
 .debug_loc     0x00004cdb       0x32 C:/Users/jon_000/Git/ALFRED_TEST/Release/arduino.ar(Reset.cpp.o)
 .debug_loc     0x00004d0d      0x329 C:/Users/jon_000/Git/ALFRED_TEST/Release/arduino.ar(CDC.cpp.o)
 .debug_loc     0x00005036      0x4e4 C:/Users/jon_000/Git/ALFRED_TEST/Release/arduino.ar(HID.cpp.o)

.debug_pubnames
                0x00000000     0x1aea
 .debug_pubnames
                0x00000000       0x87 C:/Users/jon_000/Git/ALFRED_TEST/Release/arduino/syscalls_sam3.c.o
 .debug_pubnames
                0x00000087       0xb7 ./ALFRED_TEST.cpp.o
 .debug_pubnames
                0x0000013e      0x27f ./Libraries/DueTimer/DueTimer.cpp.o
 .debug_pubnames
                0x000003bd      0x13c C:/Users/jon_000/Git/ALFRED_TEST/Release/arduino.ar(variant.cpp.o)
 .debug_pubnames
                0x000004f9      0x200 C:/Users/jon_000/Git/ALFRED_TEST/Release/arduino.ar(Print.cpp.o)
 .debug_pubnames
                0x000006f9       0x63 C:/Users/jon_000/Git/ALFRED_TEST/Release/arduino.ar(RingBuffer.cpp.o)
 .debug_pubnames
                0x0000075c      0x179 C:/Users/jon_000/Git/ALFRED_TEST/Release/arduino.ar(Stream.cpp.o)
 .debug_pubnames
                0x000008d5      0x10e C:/Users/jon_000/Git/ALFRED_TEST/Release/arduino.ar(UARTClass.cpp.o)
 .debug_pubnames
                0x000009e3      0x11b C:/Users/jon_000/Git/ALFRED_TEST/Release/arduino.ar(USARTClass.cpp.o)
 .debug_pubnames
                0x00000afe      0x6df C:/Users/jon_000/Git/ALFRED_TEST/Release/arduino.ar(WString.cpp.o)
 .debug_pubnames
                0x000011dd       0x29 C:/Users/jon_000/Git/ALFRED_TEST/Release/arduino.ar(cxxabi-compat.cpp.o)
 .debug_pubnames
                0x00001206       0x37 C:/Users/jon_000/Git/ALFRED_TEST/Release/arduino.ar(itoa.c.o)
 .debug_pubnames
                0x0000123d       0x32 C:/Users/jon_000/Git/ALFRED_TEST/Release/arduino.ar(wiring.c.o)
 .debug_pubnames
                0x0000126f       0xa2 C:/Users/jon_000/Git/ALFRED_TEST/Release/arduino.ar(wiring_analog.c.o)
 .debug_pubnames
                0x00001311       0x3f C:/Users/jon_000/Git/ALFRED_TEST/Release/arduino.ar(wiring_digital.c.o)
 .debug_pubnames
                0x00001350       0x1e C:/Users/jon_000/Git/ALFRED_TEST/Release/arduino.ar(dtostrf.c.o)
 .debug_pubnames
                0x0000136e       0x7e C:/Users/jon_000/Git/ALFRED_TEST/Release/arduino.ar(WInterrupts.c.o)
 .debug_pubnames
                0x000013ec       0x49 C:/Users/jon_000/Git/ALFRED_TEST/Release/arduino.ar(cortex_handlers.c.o)
 .debug_pubnames
                0x00001435       0x1b C:/Users/jon_000/Git/ALFRED_TEST/Release/arduino.ar(main.cpp.o)
 .debug_pubnames
                0x00001450      0x29c C:/Users/jon_000/Git/ALFRED_TEST/Release/arduino.ar(USBCore.cpp.o)
 .debug_pubnames
                0x000016ec       0x4d C:/Users/jon_000/Git/ALFRED_TEST/Release/arduino.ar(Reset.cpp.o)
 .debug_pubnames
                0x00001739      0x159 C:/Users/jon_000/Git/ALFRED_TEST/Release/arduino.ar(CDC.cpp.o)
 .debug_pubnames
                0x00001892      0x258 C:/Users/jon_000/Git/ALFRED_TEST/Release/arduino.ar(HID.cpp.o)

.debug_aranges  0x00000000      0xbc8
 .debug_aranges
                0x00000000       0x70 C:/Users/jon_000/Git/ALFRED_TEST/Release/arduino/syscalls_sam3.c.o
 .debug_aranges
                0x00000070       0x40 ./ALFRED_TEST.cpp.o
 .debug_aranges
                0x000000b0       0xc8 ./Libraries/DueTimer/DueTimer.cpp.o
 .debug_aranges
                0x00000178       0x70 C:/Users/jon_000/Git/ALFRED_TEST/Release/arduino.ar(variant.cpp.o)
 .debug_aranges
                0x000001e8       0xf0 C:/Users/jon_000/Git/ALFRED_TEST/Release/arduino.ar(Print.cpp.o)
 .debug_aranges
                0x000002d8       0x30 C:/Users/jon_000/Git/ALFRED_TEST/Release/arduino.ar(RingBuffer.cpp.o)
 .debug_aranges
                0x00000308       0x98 C:/Users/jon_000/Git/ALFRED_TEST/Release/arduino.ar(Stream.cpp.o)
 .debug_aranges
                0x000003a0       0x70 C:/Users/jon_000/Git/ALFRED_TEST/Release/arduino.ar(UARTClass.cpp.o)
 .debug_aranges
                0x00000410       0x70 C:/Users/jon_000/Git/ALFRED_TEST/Release/arduino.ar(USARTClass.cpp.o)
 .debug_aranges
                0x00000480      0x2e0 C:/Users/jon_000/Git/ALFRED_TEST/Release/arduino.ar(WString.cpp.o)
 .debug_aranges
                0x00000760       0x20 C:/Users/jon_000/Git/ALFRED_TEST/Release/arduino.ar(cxxabi-compat.cpp.o)
 .debug_aranges
                0x00000780       0x38 C:/Users/jon_000/Git/ALFRED_TEST/Release/arduino.ar(itoa.c.o)
 .debug_aranges
                0x000007b8       0x30 C:/Users/jon_000/Git/ALFRED_TEST/Release/arduino.ar(wiring.c.o)
 .debug_aranges
                0x000007e8       0x58 C:/Users/jon_000/Git/ALFRED_TEST/Release/arduino.ar(wiring_analog.c.o)
 .debug_aranges
                0x00000840       0x30 C:/Users/jon_000/Git/ALFRED_TEST/Release/arduino.ar(wiring_digital.c.o)
 .debug_aranges
                0x00000870       0x20 C:/Users/jon_000/Git/ALFRED_TEST/Release/arduino.ar(dtostrf.c.o)
 .debug_aranges
                0x00000890       0x30 C:/Users/jon_000/Git/ALFRED_TEST/Release/arduino.ar(hooks.c.o)
 .debug_aranges
                0x000008c0       0x48 C:/Users/jon_000/Git/ALFRED_TEST/Release/arduino.ar(WInterrupts.c.o)
 .debug_aranges
                0x00000908       0x38 C:/Users/jon_000/Git/ALFRED_TEST/Release/arduino.ar(cortex_handlers.c.o)
 .debug_aranges
                0x00000940       0x20 C:/Users/jon_000/Git/ALFRED_TEST/Release/arduino.ar(main.cpp.o)
 .debug_aranges
                0x00000960       0xc8 C:/Users/jon_000/Git/ALFRED_TEST/Release/arduino.ar(USBCore.cpp.o)
 .debug_aranges
                0x00000a28       0x38 C:/Users/jon_000/Git/ALFRED_TEST/Release/arduino.ar(Reset.cpp.o)
 .debug_aranges
                0x00000a60       0x90 C:/Users/jon_000/Git/ALFRED_TEST/Release/arduino.ar(CDC.cpp.o)
 .debug_aranges
                0x00000af0       0xd8 C:/Users/jon_000/Git/ALFRED_TEST/Release/arduino.ar(HID.cpp.o)

.debug_ranges   0x00000000     0x1468
 .debug_ranges  0x00000000       0x68 C:/Users/jon_000/Git/ALFRED_TEST/Release/arduino/syscalls_sam3.c.o
 .debug_ranges  0x00000068       0x38 ./ALFRED_TEST.cpp.o
 .debug_ranges  0x000000a0      0x120 ./Libraries/DueTimer/DueTimer.cpp.o
 .debug_ranges  0x000001c0       0xa0 C:/Users/jon_000/Git/ALFRED_TEST/Release/arduino.ar(variant.cpp.o)
 .debug_ranges  0x00000260      0x160 C:/Users/jon_000/Git/ALFRED_TEST/Release/arduino.ar(Print.cpp.o)
 .debug_ranges  0x000003c0       0x40 C:/Users/jon_000/Git/ALFRED_TEST/Release/arduino.ar(RingBuffer.cpp.o)
 .debug_ranges  0x00000400       0xd8 C:/Users/jon_000/Git/ALFRED_TEST/Release/arduino.ar(Stream.cpp.o)
 .debug_ranges  0x000004d8       0x98 C:/Users/jon_000/Git/ALFRED_TEST/Release/arduino.ar(UARTClass.cpp.o)
 .debug_ranges  0x00000570       0x98 C:/Users/jon_000/Git/ALFRED_TEST/Release/arduino.ar(USARTClass.cpp.o)
 .debug_ranges  0x00000608      0x800 C:/Users/jon_000/Git/ALFRED_TEST/Release/arduino.ar(WString.cpp.o)
 .debug_ranges  0x00000e08       0x18 C:/Users/jon_000/Git/ALFRED_TEST/Release/arduino.ar(cxxabi-compat.cpp.o)
 .debug_ranges  0x00000e20       0x30 C:/Users/jon_000/Git/ALFRED_TEST/Release/arduino.ar(itoa.c.o)
 .debug_ranges  0x00000e50       0x28 C:/Users/jon_000/Git/ALFRED_TEST/Release/arduino.ar(wiring.c.o)
 .debug_ranges  0x00000e78       0x68 C:/Users/jon_000/Git/ALFRED_TEST/Release/arduino.ar(wiring_analog.c.o)
 .debug_ranges  0x00000ee0       0x28 C:/Users/jon_000/Git/ALFRED_TEST/Release/arduino.ar(wiring_digital.c.o)
 .debug_ranges  0x00000f08       0x18 C:/Users/jon_000/Git/ALFRED_TEST/Release/arduino.ar(dtostrf.c.o)
 .debug_ranges  0x00000f20       0x28 C:/Users/jon_000/Git/ALFRED_TEST/Release/arduino.ar(hooks.c.o)
 .debug_ranges  0x00000f48       0x58 C:/Users/jon_000/Git/ALFRED_TEST/Release/arduino.ar(WInterrupts.c.o)
 .debug_ranges  0x00000fa0       0x30 C:/Users/jon_000/Git/ALFRED_TEST/Release/arduino.ar(cortex_handlers.c.o)
 .debug_ranges  0x00000fd0       0x18 C:/Users/jon_000/Git/ALFRED_TEST/Release/arduino.ar(main.cpp.o)
 .debug_ranges  0x00000fe8      0x240 C:/Users/jon_000/Git/ALFRED_TEST/Release/arduino.ar(USBCore.cpp.o)
 .debug_ranges  0x00001228       0x30 C:/Users/jon_000/Git/ALFRED_TEST/Release/arduino.ar(Reset.cpp.o)
 .debug_ranges  0x00001258       0xc0 C:/Users/jon_000/Git/ALFRED_TEST/Release/arduino.ar(CDC.cpp.o)
 .debug_ranges  0x00001318      0x150 C:/Users/jon_000/Git/ALFRED_TEST/Release/arduino.ar(HID.cpp.o)

.debug_str      0x00000000     0x43b5
 .debug_str     0x00000000      0x2a6 C:/Users/jon_000/Git/ALFRED_TEST/Release/arduino/syscalls_sam3.c.o
                                0x315 (size before relaxing)
 .debug_str     0x000002a6      0x679 ./ALFRED_TEST.cpp.o
                                0x766 (size before relaxing)
 .debug_str     0x0000091f      0x230 ./Libraries/DueTimer/DueTimer.cpp.o
                                0x860 (size before relaxing)
 .debug_str     0x00000b4f      0x89c C:/Users/jon_000/Git/ALFRED_TEST/Release/arduino.ar(variant.cpp.o)
                                0xd42 (size before relaxing)
 .debug_str     0x000013eb      0xc1d C:/Users/jon_000/Git/ALFRED_TEST/Release/arduino.ar(Print.cpp.o)
                                0xd86 (size before relaxing)
 .debug_str     0x00002008       0x3d C:/Users/jon_000/Git/ALFRED_TEST/Release/arduino.ar(RingBuffer.cpp.o)
                                0x12e (size before relaxing)
 .debug_str     0x00002045      0x32f C:/Users/jon_000/Git/ALFRED_TEST/Release/arduino.ar(Stream.cpp.o)
                                0xd07 (size before relaxing)
 .debug_str     0x00002374      0x242 C:/Users/jon_000/Git/ALFRED_TEST/Release/arduino.ar(UARTClass.cpp.o)
                               0x1277 (size before relaxing)
 .debug_str     0x000025b6      0x1f8 C:/Users/jon_000/Git/ALFRED_TEST/Release/arduino.ar(USARTClass.cpp.o)
                               0x12d5 (size before relaxing)
 .debug_str     0x000027ae      0x231 C:/Users/jon_000/Git/ALFRED_TEST/Release/arduino.ar(WString.cpp.o)
                                0xb89 (size before relaxing)
 .debug_str     0x000029df       0x53 C:/Users/jon_000/Git/ALFRED_TEST/Release/arduino.ar(cxxabi-compat.cpp.o)
                                 0x61 (size before relaxing)
 .debug_str     0x00002a32       0x4b C:/Users/jon_000/Git/ALFRED_TEST/Release/arduino.ar(itoa.c.o)
                                 0xf7 (size before relaxing)
 .debug_str     0x00002a7d       0x64 C:/Users/jon_000/Git/ALFRED_TEST/Release/arduino.ar(wiring.c.o)
                                0x1eb (size before relaxing)
 .debug_str     0x00002ae1      0x46d C:/Users/jon_000/Git/ALFRED_TEST/Release/arduino.ar(wiring_analog.c.o)
                                0xbd2 (size before relaxing)
 .debug_str     0x00002f4e       0x66 C:/Users/jon_000/Git/ALFRED_TEST/Release/arduino.ar(wiring_digital.c.o)
                                0x633 (size before relaxing)
 .debug_str     0x00002fb4       0x54 C:/Users/jon_000/Git/ALFRED_TEST/Release/arduino.ar(dtostrf.c.o)
                                 0x86 (size before relaxing)
 .debug_str     0x00003008       0x4d C:/Users/jon_000/Git/ALFRED_TEST/Release/arduino.ar(hooks.c.o)
                                 0x59 (size before relaxing)
 .debug_str     0x00003055       0xcf C:/Users/jon_000/Git/ALFRED_TEST/Release/arduino.ar(WInterrupts.c.o)
                                0x9e8 (size before relaxing)
 .debug_str     0x00003124       0x6b C:/Users/jon_000/Git/ALFRED_TEST/Release/arduino.ar(cortex_handlers.c.o)
                                0x17f (size before relaxing)
 .debug_str     0x0000318f       0xd6 C:/Users/jon_000/Git/ALFRED_TEST/Release/arduino.ar(main.cpp.o)
                                0x1ea (size before relaxing)
 .debug_str     0x00003265      0x953 C:/Users/jon_000/Git/ALFRED_TEST/Release/arduino.ar(USBCore.cpp.o)
                                0xc3c (size before relaxing)
 .debug_str     0x00003bb8       0xcc C:/Users/jon_000/Git/ALFRED_TEST/Release/arduino.ar(Reset.cpp.o)
                                0x20f (size before relaxing)
 .debug_str     0x00003c84      0x3e2 C:/Users/jon_000/Git/ALFRED_TEST/Release/arduino.ar(CDC.cpp.o)
                               0x1644 (size before relaxing)
 .debug_str     0x00004066      0x34f C:/Users/jon_000/Git/ALFRED_TEST/Release/arduino.ar(HID.cpp.o)
                                0x630 (size before relaxing)

.debug_frame    0x00000000     0x2fec
 .debug_frame   0x00000000       0xd0 C:/Users/jon_000/Git/ALFRED_TEST/Release/arduino/syscalls_sam3.c.o
 .debug_frame   0x000000d0       0x90 ./ALFRED_TEST.cpp.o
 .debug_frame   0x00000160      0x22c ./Libraries/DueTimer/DueTimer.cpp.o
 .debug_frame   0x0000038c       0xe8 C:/Users/jon_000/Git/ALFRED_TEST/Release/arduino.ar(variant.cpp.o)
 .debug_frame   0x00000474      0x2c8 C:/Users/jon_000/Git/ALFRED_TEST/Release/arduino.ar(Print.cpp.o)
 .debug_frame   0x0000073c       0x58 C:/Users/jon_000/Git/ALFRED_TEST/Release/arduino.ar(RingBuffer.cpp.o)
 .debug_frame   0x00000794      0x1b8 C:/Users/jon_000/Git/ALFRED_TEST/Release/arduino.ar(Stream.cpp.o)
 .debug_frame   0x0000094c       0xf8 C:/Users/jon_000/Git/ALFRED_TEST/Release/arduino.ar(UARTClass.cpp.o)
 .debug_frame   0x00000a44       0xf8 C:/Users/jon_000/Git/ALFRED_TEST/Release/arduino.ar(USARTClass.cpp.o)
 .debug_frame   0x00000b3c      0x920 C:/Users/jon_000/Git/ALFRED_TEST/Release/arduino.ar(WString.cpp.o)
 .debug_frame   0x0000145c       0x20 C:/Users/jon_000/Git/ALFRED_TEST/Release/arduino.ar(cxxabi-compat.cpp.o)
 .debug_frame   0x0000147c       0x6c C:/Users/jon_000/Git/ALFRED_TEST/Release/arduino.ar(itoa.c.o)
 .debug_frame   0x000014e8       0x58 C:/Users/jon_000/Git/ALFRED_TEST/Release/arduino.ar(wiring.c.o)
 .debug_frame   0x00001540       0xb4 C:/Users/jon_000/Git/ALFRED_TEST/Release/arduino.ar(wiring_analog.c.o)
 .debug_frame   0x000015f4       0x64 C:/Users/jon_000/Git/ALFRED_TEST/Release/arduino.ar(wiring_digital.c.o)
 .debug_frame   0x00001658       0x34 C:/Users/jon_000/Git/ALFRED_TEST/Release/arduino.ar(dtostrf.c.o)
 .debug_frame   0x0000168c       0x40 C:/Users/jon_000/Git/ALFRED_TEST/Release/arduino.ar(hooks.c.o)
 .debug_frame   0x000016cc       0xb0 C:/Users/jon_000/Git/ALFRED_TEST/Release/arduino.ar(WInterrupts.c.o)
 .debug_frame   0x0000177c       0x58 C:/Users/jon_000/Git/ALFRED_TEST/Release/arduino.ar(cortex_handlers.c.o)
 .debug_frame   0x000017d4       0x28 C:/Users/jon_000/Git/ALFRED_TEST/Release/arduino.ar(main.cpp.o)
 .debug_frame   0x000017fc      0x234 C:/Users/jon_000/Git/ALFRED_TEST/Release/arduino.ar(USBCore.cpp.o)
 .debug_frame   0x00001a30       0x58 C:/Users/jon_000/Git/ALFRED_TEST/Release/arduino.ar(Reset.cpp.o)
 .debug_frame   0x00001a88      0x13c C:/Users/jon_000/Git/ALFRED_TEST/Release/arduino.ar(CDC.cpp.o)
 .debug_frame   0x00001bc4      0x1d8 C:/Users/jon_000/Git/ALFRED_TEST/Release/arduino.ar(HID.cpp.o)
 .debug_frame   0x00001d9c       0x20 c:/arduino/hardware/tools/g++_arm_none_eabi/bin/../lib/gcc/arm-none-eabi/4.4.1/../../../../arm-none-eabi/lib/thumb2\libm.a(lib_a-s_isinfd.o)
 .debug_frame   0x00001dbc       0x20 c:/arduino/hardware/tools/g++_arm_none_eabi/bin/../lib/gcc/arm-none-eabi/4.4.1/../../../../arm-none-eabi/lib/thumb2\libm.a(lib_a-s_isnand.o)
 .debug_frame   0x00001ddc       0x44 c:/arduino/hardware/tools/g++_arm_none_eabi/bin/../lib/gcc/arm-none-eabi/4.4.1/../../../../arm-none-eabi/lib/thumb2\libc.a(lib_a-assert.o)
 .debug_frame   0x00001e20       0x20 c:/arduino/hardware/tools/g++_arm_none_eabi/bin/../lib/gcc/arm-none-eabi/4.4.1/../../../../arm-none-eabi/lib/thumb2\libc.a(lib_a-atof.o)
 .debug_frame   0x00001e40       0x30 c:/arduino/hardware/tools/g++_arm_none_eabi/bin/../lib/gcc/arm-none-eabi/4.4.1/../../../../arm-none-eabi/lib/thumb2\libc.a(lib_a-atol.o)
 .debug_frame   0x00001e70       0x5c c:/arduino/hardware/tools/g++_arm_none_eabi/bin/../lib/gcc/arm-none-eabi/4.4.1/../../../../arm-none-eabi/lib/thumb2\libc.a(lib_a-fiprintf.o)
 .debug_frame   0x00001ecc       0x2c c:/arduino/hardware/tools/g++_arm_none_eabi/bin/../lib/gcc/arm-none-eabi/4.4.1/../../../../arm-none-eabi/lib/thumb2\libc.a(lib_a-init.o)
 .debug_frame   0x00001ef8       0x5c c:/arduino/hardware/tools/g++_arm_none_eabi/bin/../lib/gcc/arm-none-eabi/4.4.1/../../../../arm-none-eabi/lib/thumb2\libc.a(lib_a-iprintf.o)
 .debug_frame   0x00001f54       0x20 c:/arduino/hardware/tools/g++_arm_none_eabi/bin/../lib/gcc/arm-none-eabi/4.4.1/../../../../arm-none-eabi/lib/thumb2\libc.a(lib_a-isspace.o)
 .debug_frame   0x00001f74       0x30 c:/arduino/hardware/tools/g++_arm_none_eabi/bin/../lib/gcc/arm-none-eabi/4.4.1/../../../../arm-none-eabi/lib/thumb2\libc.a(lib_a-malloc.o)
 .debug_frame   0x00001fa4       0x3c c:/arduino/hardware/tools/g++_arm_none_eabi/bin/../lib/gcc/arm-none-eabi/4.4.1/../../../../arm-none-eabi/lib/thumb2\libc.a(lib_a-mallocr.o)
 .debug_frame   0x00001fe0       0x34 c:/arduino/hardware/tools/g++_arm_none_eabi/bin/../lib/gcc/arm-none-eabi/4.4.1/../../../../arm-none-eabi/lib/thumb2\libc.a(lib_a-memcpy.o)
 .debug_frame   0x00002014       0x2c c:/arduino/hardware/tools/g++_arm_none_eabi/bin/../lib/gcc/arm-none-eabi/4.4.1/../../../../arm-none-eabi/lib/thumb2\libc.a(lib_a-memmove.o)
 .debug_frame   0x00002040       0x28 c:/arduino/hardware/tools/g++_arm_none_eabi/bin/../lib/gcc/arm-none-eabi/4.4.1/../../../../arm-none-eabi/lib/thumb2\libc.a(lib_a-memset.o)
 .debug_frame   0x00002068       0x30 c:/arduino/hardware/tools/g++_arm_none_eabi/bin/../lib/gcc/arm-none-eabi/4.4.1/../../../../arm-none-eabi/lib/thumb2\libc.a(lib_a-mlock.o)
 .debug_frame   0x00002098       0x20 c:/arduino/hardware/tools/g++_arm_none_eabi/bin/../lib/gcc/arm-none-eabi/4.4.1/../../../../arm-none-eabi/lib/thumb2\libc.a(lib_a-realloc.o)
 .debug_frame   0x000020b8       0x3c c:/arduino/hardware/tools/g++_arm_none_eabi/bin/../lib/gcc/arm-none-eabi/4.4.1/../../../../arm-none-eabi/lib/thumb2\libc.a(lib_a-reallocr.o)
 .debug_frame   0x000020f4       0x2c c:/arduino/hardware/tools/g++_arm_none_eabi/bin/../lib/gcc/arm-none-eabi/4.4.1/../../../../arm-none-eabi/lib/thumb2\libc.a(lib_a-sbrkr.o)
 .debug_frame   0x00002120       0x5c c:/arduino/hardware/tools/g++_arm_none_eabi/bin/../lib/gcc/arm-none-eabi/4.4.1/../../../../arm-none-eabi/lib/thumb2\libc.a(lib_a-sprintf.o)
 .debug_frame   0x0000217c       0x28 c:/arduino/hardware/tools/g++_arm_none_eabi/bin/../lib/gcc/arm-none-eabi/4.4.1/../../../../arm-none-eabi/lib/thumb2\libc.a(lib_a-strchr.o)
 .debug_frame   0x000021a4       0x30 c:/arduino/hardware/tools/g++_arm_none_eabi/bin/../lib/gcc/arm-none-eabi/4.4.1/../../../../arm-none-eabi/lib/thumb2\libc.a(lib_a-strcmp.o)
 .debug_frame   0x000021d4       0x20 c:/arduino/hardware/tools/g++_arm_none_eabi/bin/../lib/gcc/arm-none-eabi/4.4.1/../../../../arm-none-eabi/lib/thumb2\libc.a(lib_a-strcpy.o)
 .debug_frame   0x000021f4       0x20 c:/arduino/hardware/tools/g++_arm_none_eabi/bin/../lib/gcc/arm-none-eabi/4.4.1/../../../../arm-none-eabi/lib/thumb2\libc.a(lib_a-strlen.o)
 .debug_frame   0x00002214       0x28 c:/arduino/hardware/tools/g++_arm_none_eabi/bin/../lib/gcc/arm-none-eabi/4.4.1/../../../../arm-none-eabi/lib/thumb2\libc.a(lib_a-strncmp.o)
 .debug_frame   0x0000223c       0x28 c:/arduino/hardware/tools/g++_arm_none_eabi/bin/../lib/gcc/arm-none-eabi/4.4.1/../../../../arm-none-eabi/lib/thumb2\libc.a(lib_a-strncpy.o)
 .debug_frame   0x00002264       0x2c c:/arduino/hardware/tools/g++_arm_none_eabi/bin/../lib/gcc/arm-none-eabi/4.4.1/../../../../arm-none-eabi/lib/thumb2\libc.a(lib_a-strrchr.o)
 .debug_frame   0x00002290       0x90 c:/arduino/hardware/tools/g++_arm_none_eabi/bin/../lib/gcc/arm-none-eabi/4.4.1/../../../../arm-none-eabi/lib/thumb2\libc.a(lib_a-strstr.o)
 .debug_frame   0x00002320       0x6c c:/arduino/hardware/tools/g++_arm_none_eabi/bin/../lib/gcc/arm-none-eabi/4.4.1/../../../../arm-none-eabi/lib/thumb2\libc.a(lib_a-strtod.o)
 .debug_frame   0x0000238c       0x54 c:/arduino/hardware/tools/g++_arm_none_eabi/bin/../lib/gcc/arm-none-eabi/4.4.1/../../../../arm-none-eabi/lib/thumb2\libc.a(lib_a-strtol.o)
 .debug_frame   0x000023e0       0x68 c:/arduino/hardware/tools/g++_arm_none_eabi/bin/../lib/gcc/arm-none-eabi/4.4.1/../../../../arm-none-eabi/lib/thumb2\libc.a(lib_a-svfprintf.o)
 .debug_frame   0x00002448       0x20 c:/arduino/hardware/tools/g++_arm_none_eabi/bin/../lib/gcc/arm-none-eabi/4.4.1/../../../../arm-none-eabi/lib/thumb2\libc.a(lib_a-tolower.o)
 .debug_frame   0x00002468       0x20 c:/arduino/hardware/tools/g++_arm_none_eabi/bin/../lib/gcc/arm-none-eabi/4.4.1/../../../../arm-none-eabi/lib/thumb2\libc.a(lib_a-toupper.o)
 .debug_frame   0x00002488       0x70 c:/arduino/hardware/tools/g++_arm_none_eabi/bin/../lib/gcc/arm-none-eabi/4.4.1/../../../../arm-none-eabi/lib/thumb2\libc.a(lib_a-vfiprintf.o)
 .debug_frame   0x000024f8       0x2c c:/arduino/hardware/tools/g++_arm_none_eabi/bin/../lib/gcc/arm-none-eabi/4.4.1/../../../../arm-none-eabi/lib/thumb2\libc.a(lib_a-wsetup.o)
 .debug_frame   0x00002524       0x28 c:/arduino/hardware/tools/g++_arm_none_eabi/bin/../lib/gcc/arm-none-eabi/4.4.1/../../../../arm-none-eabi/lib/thumb2\libc.a(lib_a-abort.o)
 .debug_frame   0x0000254c       0x64 c:/arduino/hardware/tools/g++_arm_none_eabi/bin/../lib/gcc/arm-none-eabi/4.4.1/../../../../arm-none-eabi/lib/thumb2\libc.a(lib_a-dtoa.o)
 .debug_frame   0x000025b0       0x40 c:/arduino/hardware/tools/g++_arm_none_eabi/bin/../lib/gcc/arm-none-eabi/4.4.1/../../../../arm-none-eabi/lib/thumb2\libc.a(lib_a-fflush.o)
 .debug_frame   0x000025f0      0x11c c:/arduino/hardware/tools/g++_arm_none_eabi/bin/../lib/gcc/arm-none-eabi/4.4.1/../../../../arm-none-eabi/lib/thumb2\libc.a(lib_a-findfp.o)
 .debug_frame   0x0000270c       0x50 c:/arduino/hardware/tools/g++_arm_none_eabi/bin/../lib/gcc/arm-none-eabi/4.4.1/../../../../arm-none-eabi/lib/thumb2\libc.a(lib_a-freer.o)
 .debug_frame   0x0000275c       0x3c c:/arduino/hardware/tools/g++_arm_none_eabi/bin/../lib/gcc/arm-none-eabi/4.4.1/../../../../arm-none-eabi/lib/thumb2\libc.a(lib_a-fvwrite.o)
 .debug_frame   0x00002798       0x54 c:/arduino/hardware/tools/g++_arm_none_eabi/bin/../lib/gcc/arm-none-eabi/4.4.1/../../../../arm-none-eabi/lib/thumb2\libc.a(lib_a-fwalk.o)
 .debug_frame   0x000027ec       0x6c c:/arduino/hardware/tools/g++_arm_none_eabi/bin/../lib/gcc/arm-none-eabi/4.4.1/../../../../arm-none-eabi/lib/thumb2\libc.a(lib_a-gdtoa-gethex.o)
 .debug_frame   0x00002858       0x3c c:/arduino/hardware/tools/g++_arm_none_eabi/bin/../lib/gcc/arm-none-eabi/4.4.1/../../../../arm-none-eabi/lib/thumb2\libc.a(lib_a-gdtoa-hexnan.o)
 .debug_frame   0x00002894       0x6c c:/arduino/hardware/tools/g++_arm_none_eabi/bin/../lib/gcc/arm-none-eabi/4.4.1/../../../../arm-none-eabi/lib/thumb2\libc.a(lib_a-locale.o)
 .debug_frame   0x00002900       0x34 c:/arduino/hardware/tools/g++_arm_none_eabi/bin/../lib/gcc/arm-none-eabi/4.4.1/../../../../arm-none-eabi/lib/thumb2\libc.a(lib_a-makebuf.o)
 .debug_frame   0x00002934       0x28 c:/arduino/hardware/tools/g++_arm_none_eabi/bin/../lib/gcc/arm-none-eabi/4.4.1/../../../../arm-none-eabi/lib/thumb2\libc.a(lib_a-memchr.o)
 .debug_frame   0x0000295c       0x28 c:/arduino/hardware/tools/g++_arm_none_eabi/bin/../lib/gcc/arm-none-eabi/4.4.1/../../../../arm-none-eabi/lib/thumb2\libc.a(lib_a-memcmp.o)
 .debug_frame   0x00002984      0x240 c:/arduino/hardware/tools/g++_arm_none_eabi/bin/../lib/gcc/arm-none-eabi/4.4.1/../../../../arm-none-eabi/lib/thumb2\libc.a(lib_a-mprec.o)
 .debug_frame   0x00002bc4       0x64 c:/arduino/hardware/tools/g++_arm_none_eabi/bin/../lib/gcc/arm-none-eabi/4.4.1/../../../../arm-none-eabi/lib/thumb2\libc.a(lib_a-reent.o)
 .debug_frame   0x00002c28       0xc0 c:/arduino/hardware/tools/g++_arm_none_eabi/bin/../lib/gcc/arm-none-eabi/4.4.1/../../../../arm-none-eabi/lib/thumb2\libc.a(lib_a-signal.o)
 .debug_frame   0x00002ce8       0x3c c:/arduino/hardware/tools/g++_arm_none_eabi/bin/../lib/gcc/arm-none-eabi/4.4.1/../../../../arm-none-eabi/lib/thumb2\libc.a(lib_a-signalr.o)
 .debug_frame   0x00002d24       0x70 c:/arduino/hardware/tools/g++_arm_none_eabi/bin/../lib/gcc/arm-none-eabi/4.4.1/../../../../arm-none-eabi/lib/thumb2\libc.a(lib_a-stdio.o)
 .debug_frame   0x00002d94       0x2c c:/arduino/hardware/tools/g++_arm_none_eabi/bin/../lib/gcc/arm-none-eabi/4.4.1/../../../../arm-none-eabi/lib/thumb2\libc.a(lib_a-writer.o)
 .debug_frame   0x00002dc0       0x2c c:/arduino/hardware/tools/g++_arm_none_eabi/bin/../lib/gcc/arm-none-eabi/4.4.1/../../../../arm-none-eabi/lib/thumb2\libc.a(lib_a-callocr.o)
 .debug_frame   0x00002dec       0x2c c:/arduino/hardware/tools/g++_arm_none_eabi/bin/../lib/gcc/arm-none-eabi/4.4.1/../../../../arm-none-eabi/lib/thumb2\libc.a(lib_a-closer.o)
 .debug_frame   0x00002e18       0x3c c:/arduino/hardware/tools/g++_arm_none_eabi/bin/../lib/gcc/arm-none-eabi/4.4.1/../../../../arm-none-eabi/lib/thumb2\libc.a(lib_a-fclose.o)
 .debug_frame   0x00002e54       0x2c c:/arduino/hardware/tools/g++_arm_none_eabi/bin/../lib/gcc/arm-none-eabi/4.4.1/../../../../arm-none-eabi/lib/thumb2\libc.a(lib_a-fstatr.o)
 .debug_frame   0x00002e80       0x2c c:/arduino/hardware/tools/g++_arm_none_eabi/bin/../lib/gcc/arm-none-eabi/4.4.1/../../../../arm-none-eabi/lib/thumb2\libc.a(lib_a-isattyr.o)
 .debug_frame   0x00002eac       0x2c c:/arduino/hardware/tools/g++_arm_none_eabi/bin/../lib/gcc/arm-none-eabi/4.4.1/../../../../arm-none-eabi/lib/thumb2\libc.a(lib_a-lseekr.o)
 .debug_frame   0x00002ed8       0x2c c:/arduino/hardware/tools/g++_arm_none_eabi/bin/../lib/gcc/arm-none-eabi/4.4.1/../../../../arm-none-eabi/lib/thumb2\libc.a(lib_a-readr.o)
 .debug_frame   0x00002f04       0x20 c:/arduino/hardware/tools/g++_arm_none_eabi/bin/../lib/gcc/arm-none-eabi/4.4.1/thumb2\libgcc.a(_udivsi3.o)
 .debug_frame   0x00002f24       0x50 c:/arduino/hardware/tools/g++_arm_none_eabi/bin/../lib/gcc/arm-none-eabi/4.4.1/thumb2\libgcc.a(bpabi.o)
 .debug_frame   0x00002f74       0x3c c:/arduino/hardware/tools/g++_arm_none_eabi/bin/../lib/gcc/arm-none-eabi/4.4.1/thumb2\libgcc.a(_divdi3.o)
 .debug_frame   0x00002fb0       0x3c c:/arduino/hardware/tools/g++_arm_none_eabi/bin/../lib/gcc/arm-none-eabi/4.4.1/thumb2\libgcc.a(_udivdi3.o)

Cross Reference Table

Symbol                                            File
ADC_Handler                                       C:/Users/jon_000/Git/ALFRED_TEST/Release/arduino.ar(cortex_handlers.c.o)
                                                  C:/Arduino/hardware/arduino/sam/variants/arduino_due_x/libsam_sam3x8e_gcc_rel.a(startup_sam3xa.o)
BusFault_Handler                                  C:/Users/jon_000/Git/ALFRED_TEST/Release/arduino.ar(cortex_handlers.c.o)
                                                  C:/Arduino/hardware/arduino/sam/variants/arduino_due_x/libsam_sam3x8e_gcc_rel.a(startup_sam3xa.o)
CAN0_Handler                                      C:/Users/jon_000/Git/ALFRED_TEST/Release/arduino.ar(cortex_handlers.c.o)
                                                  C:/Arduino/hardware/arduino/sam/variants/arduino_due_x/libsam_sam3x8e_gcc_rel.a(startup_sam3xa.o)
CAN1_Handler                                      C:/Users/jon_000/Git/ALFRED_TEST/Release/arduino.ar(cortex_handlers.c.o)
                                                  C:/Arduino/hardware/arduino/sam/variants/arduino_due_x/libsam_sam3x8e_gcc_rel.a(startup_sam3xa.o)
CDC_GetInterface(unsigned char*)                  C:/Users/jon_000/Git/ALFRED_TEST/Release/arduino.ar(CDC.cpp.o)
                                                  C:/Users/jon_000/Git/ALFRED_TEST/Release/arduino.ar(USBCore.cpp.o)
CDC_GetOtherInterface(unsigned char*)             C:/Users/jon_000/Git/ALFRED_TEST/Release/arduino.ar(CDC.cpp.o)
                                                  C:/Users/jon_000/Git/ALFRED_TEST/Release/arduino.ar(USBCore.cpp.o)
CDC_Setup(Setup&)                                 C:/Users/jon_000/Git/ALFRED_TEST/Release/arduino.ar(CDC.cpp.o)
                                                  C:/Users/jon_000/Git/ALFRED_TEST/Release/arduino.ar(USBCore.cpp.o)
DACC_Handler                                      C:/Users/jon_000/Git/ALFRED_TEST/Release/arduino.ar(cortex_handlers.c.o)
                                                  C:/Arduino/hardware/arduino/sam/variants/arduino_due_x/libsam_sam3x8e_gcc_rel.a(startup_sam3xa.o)
DMAC_Handler                                      C:/Users/jon_000/Git/ALFRED_TEST/Release/arduino.ar(cortex_handlers.c.o)
                                                  C:/Arduino/hardware/arduino/sam/variants/arduino_due_x/libsam_sam3x8e_gcc_rel.a(startup_sam3xa.o)
DebugMon_Handler                                  C:/Users/jon_000/Git/ALFRED_TEST/Release/arduino.ar(cortex_handlers.c.o)
                                                  C:/Arduino/hardware/arduino/sam/variants/arduino_due_x/libsam_sam3x8e_gcc_rel.a(startup_sam3xa.o)
DueTimer::DueTimer(int)                           ./Libraries/DueTimer/DueTimer.cpp.o
DueTimer::DueTimer(int)                           ./Libraries/DueTimer/DueTimer.cpp.o
DueTimer::Timers                                  ./Libraries/DueTimer/DueTimer.cpp.o
DueTimer::_frequency                              ./Libraries/DueTimer/DueTimer.cpp.o
DueTimer::attachInterrupt(void (*)())             ./Libraries/DueTimer/DueTimer.cpp.o
                                                  ./ALFRED_TEST.cpp.o
DueTimer::bestClock(double, unsigned long&)       ./Libraries/DueTimer/DueTimer.cpp.o
DueTimer::callbacks                               ./Libraries/DueTimer/DueTimer.cpp.o
DueTimer::detachInterrupt()                       ./Libraries/DueTimer/DueTimer.cpp.o
DueTimer::getAvailable()                          ./Libraries/DueTimer/DueTimer.cpp.o
DueTimer::getFrequency()                          ./Libraries/DueTimer/DueTimer.cpp.o
DueTimer::getPeriod()                             ./Libraries/DueTimer/DueTimer.cpp.o
DueTimer::setFrequency(double)                    ./Libraries/DueTimer/DueTimer.cpp.o
DueTimer::setPeriod(long)                         ./Libraries/DueTimer/DueTimer.cpp.o
DueTimer::start(long)                             ./Libraries/DueTimer/DueTimer.cpp.o
                                                  ./ALFRED_TEST.cpp.o
DueTimer::stop()                                  ./Libraries/DueTimer/DueTimer.cpp.o
                                                  ./ALFRED_TEST.cpp.o
EFC0_Handler                                      C:/Users/jon_000/Git/ALFRED_TEST/Release/arduino.ar(cortex_handlers.c.o)
                                                  C:/Arduino/hardware/arduino/sam/variants/arduino_due_x/libsam_sam3x8e_gcc_rel.a(startup_sam3xa.o)
EFC1_Handler                                      C:/Users/jon_000/Git/ALFRED_TEST/Release/arduino.ar(cortex_handlers.c.o)
                                                  C:/Arduino/hardware/arduino/sam/variants/arduino_due_x/libsam_sam3x8e_gcc_rel.a(startup_sam3xa.o)
EMAC_Handler                                      C:/Users/jon_000/Git/ALFRED_TEST/Release/arduino.ar(cortex_handlers.c.o)
                                                  C:/Arduino/hardware/arduino/sam/variants/arduino_due_x/libsam_sam3x8e_gcc_rel.a(startup_sam3xa.o)
GetTickCount                                      C:/Arduino/hardware/arduino/sam/variants/arduino_due_x/libsam_sam3x8e_gcc_rel.a(timetick.o)
                                                  C:/Users/jon_000/Git/ALFRED_TEST/Release/arduino.ar(wiring.c.o)
HID_GetDescriptor(int)                            C:/Users/jon_000/Git/ALFRED_TEST/Release/arduino.ar(HID.cpp.o)
                                                  C:/Users/jon_000/Git/ALFRED_TEST/Release/arduino.ar(USBCore.cpp.o)
HID_GetInterface(unsigned char*)                  C:/Users/jon_000/Git/ALFRED_TEST/Release/arduino.ar(HID.cpp.o)
                                                  C:/Users/jon_000/Git/ALFRED_TEST/Release/arduino.ar(USBCore.cpp.o)
HID_SendReport(unsigned char, void const*, unsigned long) C:/Users/jon_000/Git/ALFRED_TEST/Release/arduino.ar(HID.cpp.o)
HID_Setup(Setup&)                                 C:/Users/jon_000/Git/ALFRED_TEST/Release/arduino.ar(HID.cpp.o)
                                                  C:/Users/jon_000/Git/ALFRED_TEST/Release/arduino.ar(USBCore.cpp.o)
HSMCI_Handler                                     C:/Users/jon_000/Git/ALFRED_TEST/Release/arduino.ar(cortex_handlers.c.o)
                                                  C:/Arduino/hardware/arduino/sam/variants/arduino_due_x/libsam_sam3x8e_gcc_rel.a(startup_sam3xa.o)
HardFault_Handler                                 C:/Users/jon_000/Git/ALFRED_TEST/Release/arduino.ar(cortex_handlers.c.o)
                                                  C:/Arduino/hardware/arduino/sam/variants/arduino_due_x/libsam_sam3x8e_gcc_rel.a(startup_sam3xa.o)
Keyboard                                          C:/Users/jon_000/Git/ALFRED_TEST/Release/arduino.ar(HID.cpp.o)
Keyboard_::Keyboard_()                            C:/Users/jon_000/Git/ALFRED_TEST/Release/arduino.ar(HID.cpp.o)
Keyboard_::Keyboard_()                            C:/Users/jon_000/Git/ALFRED_TEST/Release/arduino.ar(HID.cpp.o)
Keyboard_::begin()                                C:/Users/jon_000/Git/ALFRED_TEST/Release/arduino.ar(HID.cpp.o)
Keyboard_::end()                                  C:/Users/jon_000/Git/ALFRED_TEST/Release/arduino.ar(HID.cpp.o)
Keyboard_::press(unsigned char)                   C:/Users/jon_000/Git/ALFRED_TEST/Release/arduino.ar(HID.cpp.o)
Keyboard_::release(unsigned char)                 C:/Users/jon_000/Git/ALFRED_TEST/Release/arduino.ar(HID.cpp.o)
Keyboard_::releaseAll()                           C:/Users/jon_000/Git/ALFRED_TEST/Release/arduino.ar(HID.cpp.o)
Keyboard_::sendReport(KeyReport*)                 C:/Users/jon_000/Git/ALFRED_TEST/Release/arduino.ar(HID.cpp.o)
Keyboard_::write(unsigned char)                   C:/Users/jon_000/Git/ALFRED_TEST/Release/arduino.ar(HID.cpp.o)
MemManage_Handler                                 C:/Users/jon_000/Git/ALFRED_TEST/Release/arduino.ar(cortex_handlers.c.o)
                                                  C:/Arduino/hardware/arduino/sam/variants/arduino_due_x/libsam_sam3x8e_gcc_rel.a(startup_sam3xa.o)
Mouse                                             C:/Users/jon_000/Git/ALFRED_TEST/Release/arduino.ar(HID.cpp.o)
Mouse_::Mouse_()                                  C:/Users/jon_000/Git/ALFRED_TEST/Release/arduino.ar(HID.cpp.o)
Mouse_::Mouse_()                                  C:/Users/jon_000/Git/ALFRED_TEST/Release/arduino.ar(HID.cpp.o)
Mouse_::begin()                                   C:/Users/jon_000/Git/ALFRED_TEST/Release/arduino.ar(HID.cpp.o)
Mouse_::buttons(unsigned char)                    C:/Users/jon_000/Git/ALFRED_TEST/Release/arduino.ar(HID.cpp.o)
Mouse_::click(unsigned char)                      C:/Users/jon_000/Git/ALFRED_TEST/Release/arduino.ar(HID.cpp.o)
Mouse_::end()                                     C:/Users/jon_000/Git/ALFRED_TEST/Release/arduino.ar(HID.cpp.o)
Mouse_::isPressed(unsigned char)                  C:/Users/jon_000/Git/ALFRED_TEST/Release/arduino.ar(HID.cpp.o)
Mouse_::move(signed char, signed char, signed char) C:/Users/jon_000/Git/ALFRED_TEST/Release/arduino.ar(HID.cpp.o)
Mouse_::press(unsigned char)                      C:/Users/jon_000/Git/ALFRED_TEST/Release/arduino.ar(HID.cpp.o)
Mouse_::release(unsigned char)                    C:/Users/jon_000/Git/ALFRED_TEST/Release/arduino.ar(HID.cpp.o)
NMI_Handler                                       C:/Users/jon_000/Git/ALFRED_TEST/Release/arduino.ar(cortex_handlers.c.o)
                                                  C:/Arduino/hardware/arduino/sam/variants/arduino_due_x/libsam_sam3x8e_gcc_rel.a(startup_sam3xa.o)
PIOA_Handler                                      C:/Users/jon_000/Git/ALFRED_TEST/Release/arduino.ar(WInterrupts.c.o)
                                                  C:/Arduino/hardware/arduino/sam/variants/arduino_due_x/libsam_sam3x8e_gcc_rel.a(startup_sam3xa.o)
PIOB_Handler                                      C:/Users/jon_000/Git/ALFRED_TEST/Release/arduino.ar(WInterrupts.c.o)
                                                  C:/Arduino/hardware/arduino/sam/variants/arduino_due_x/libsam_sam3x8e_gcc_rel.a(startup_sam3xa.o)
PIOC_Handler                                      C:/Users/jon_000/Git/ALFRED_TEST/Release/arduino.ar(WInterrupts.c.o)
                                                  C:/Arduino/hardware/arduino/sam/variants/arduino_due_x/libsam_sam3x8e_gcc_rel.a(startup_sam3xa.o)
PIOD_Handler                                      C:/Users/jon_000/Git/ALFRED_TEST/Release/arduino.ar(WInterrupts.c.o)
                                                  C:/Arduino/hardware/arduino/sam/variants/arduino_due_x/libsam_sam3x8e_gcc_rel.a(startup_sam3xa.o)
PIO_Clear                                         C:/Arduino/hardware/arduino/sam/variants/arduino_due_x/libsam_sam3x8e_gcc_rel.a(pio.o)
PIO_Configure                                     C:/Arduino/hardware/arduino/sam/variants/arduino_due_x/libsam_sam3x8e_gcc_rel.a(pio.o)
                                                  C:/Users/jon_000/Git/ALFRED_TEST/Release/arduino.ar(wiring_digital.c.o)
                                                  C:/Users/jon_000/Git/ALFRED_TEST/Release/arduino.ar(wiring_analog.c.o)
                                                  C:/Users/jon_000/Git/ALFRED_TEST/Release/arduino.ar(variant.cpp.o)
PIO_DisableInterrupt                              C:/Arduino/hardware/arduino/sam/variants/arduino_due_x/libsam_sam3x8e_gcc_rel.a(pio.o)
PIO_Get                                           C:/Arduino/hardware/arduino/sam/variants/arduino_due_x/libsam_sam3x8e_gcc_rel.a(pio.o)
                                                  C:/Users/jon_000/Git/ALFRED_TEST/Release/arduino.ar(wiring_digital.c.o)
PIO_GetOutputDataStatus                           C:/Arduino/hardware/arduino/sam/variants/arduino_due_x/libsam_sam3x8e_gcc_rel.a(pio.o)
                                                  C:/Users/jon_000/Git/ALFRED_TEST/Release/arduino.ar(wiring_digital.c.o)
PIO_PullUp                                        C:/Arduino/hardware/arduino/sam/variants/arduino_due_x/libsam_sam3x8e_gcc_rel.a(pio.o)
                                                  C:/Users/jon_000/Git/ALFRED_TEST/Release/arduino.ar(wiring_digital.c.o)
PIO_Set                                           C:/Arduino/hardware/arduino/sam/variants/arduino_due_x/libsam_sam3x8e_gcc_rel.a(pio.o)
PIO_SetDebounceFilter                             C:/Arduino/hardware/arduino/sam/variants/arduino_due_x/libsam_sam3x8e_gcc_rel.a(pio.o)
PIO_SetInput                                      C:/Arduino/hardware/arduino/sam/variants/arduino_due_x/libsam_sam3x8e_gcc_rel.a(pio.o)
PIO_SetOutput                                     C:/Arduino/hardware/arduino/sam/variants/arduino_due_x/libsam_sam3x8e_gcc_rel.a(pio.o)
                                                  C:/Users/jon_000/Git/ALFRED_TEST/Release/arduino.ar(wiring_digital.c.o)
PIO_SetPeripheral                                 C:/Arduino/hardware/arduino/sam/variants/arduino_due_x/libsam_sam3x8e_gcc_rel.a(pio.o)
PMC_Handler                                       C:/Users/jon_000/Git/ALFRED_TEST/Release/arduino.ar(cortex_handlers.c.o)
                                                  C:/Arduino/hardware/arduino/sam/variants/arduino_due_x/libsam_sam3x8e_gcc_rel.a(startup_sam3xa.o)
PWMC_ConfigureChannel                             C:/Arduino/hardware/arduino/sam/variants/arduino_due_x/libsam_sam3x8e_gcc_rel.a(pwmc.o)
                                                  C:/Users/jon_000/Git/ALFRED_TEST/Release/arduino.ar(wiring_analog.c.o)
PWMC_ConfigureChannelExt                          C:/Arduino/hardware/arduino/sam/variants/arduino_due_x/libsam_sam3x8e_gcc_rel.a(pwmc.o)
PWMC_ConfigureClocks                              C:/Arduino/hardware/arduino/sam/variants/arduino_due_x/libsam_sam3x8e_gcc_rel.a(pwmc.o)
                                                  C:/Users/jon_000/Git/ALFRED_TEST/Release/arduino.ar(wiring_analog.c.o)
PWMC_ConfigureComparisonUnit                      C:/Arduino/hardware/arduino/sam/variants/arduino_due_x/libsam_sam3x8e_gcc_rel.a(pwmc.o)
PWMC_ConfigureEventLineMode                       C:/Arduino/hardware/arduino/sam/variants/arduino_due_x/libsam_sam3x8e_gcc_rel.a(pwmc.o)
PWMC_ConfigureSyncChannel                         C:/Arduino/hardware/arduino/sam/variants/arduino_due_x/libsam_sam3x8e_gcc_rel.a(pwmc.o)
PWMC_DisableChannel                               C:/Arduino/hardware/arduino/sam/variants/arduino_due_x/libsam_sam3x8e_gcc_rel.a(pwmc.o)
PWMC_DisableChannelIt                             C:/Arduino/hardware/arduino/sam/variants/arduino_due_x/libsam_sam3x8e_gcc_rel.a(pwmc.o)
PWMC_DisableIt                                    C:/Arduino/hardware/arduino/sam/variants/arduino_due_x/libsam_sam3x8e_gcc_rel.a(pwmc.o)
PWMC_DisableOverrideOutput                        C:/Arduino/hardware/arduino/sam/variants/arduino_due_x/libsam_sam3x8e_gcc_rel.a(pwmc.o)
PWMC_EnableChannel                                C:/Arduino/hardware/arduino/sam/variants/arduino_due_x/libsam_sam3x8e_gcc_rel.a(pwmc.o)
                                                  C:/Users/jon_000/Git/ALFRED_TEST/Release/arduino.ar(wiring_analog.c.o)
PWMC_EnableChannelIt                              C:/Arduino/hardware/arduino/sam/variants/arduino_due_x/libsam_sam3x8e_gcc_rel.a(pwmc.o)
PWMC_EnableFaultProtection                        C:/Arduino/hardware/arduino/sam/variants/arduino_due_x/libsam_sam3x8e_gcc_rel.a(pwmc.o)
PWMC_EnableIt                                     C:/Arduino/hardware/arduino/sam/variants/arduino_due_x/libsam_sam3x8e_gcc_rel.a(pwmc.o)
PWMC_EnableOverrideOutput                         C:/Arduino/hardware/arduino/sam/variants/arduino_due_x/libsam_sam3x8e_gcc_rel.a(pwmc.o)
PWMC_FaultClear                                   C:/Arduino/hardware/arduino/sam/variants/arduino_due_x/libsam_sam3x8e_gcc_rel.a(pwmc.o)
PWMC_SetDeadTime                                  C:/Arduino/hardware/arduino/sam/variants/arduino_due_x/libsam_sam3x8e_gcc_rel.a(pwmc.o)
PWMC_SetDutyCycle                                 C:/Arduino/hardware/arduino/sam/variants/arduino_due_x/libsam_sam3x8e_gcc_rel.a(pwmc.o)
                                                  C:/Users/jon_000/Git/ALFRED_TEST/Release/arduino.ar(wiring_analog.c.o)
PWMC_SetFaultMode                                 C:/Arduino/hardware/arduino/sam/variants/arduino_due_x/libsam_sam3x8e_gcc_rel.a(pwmc.o)
PWMC_SetFaultProtectionValue                      C:/Arduino/hardware/arduino/sam/variants/arduino_due_x/libsam_sam3x8e_gcc_rel.a(pwmc.o)
PWMC_SetOverrideValue                             C:/Arduino/hardware/arduino/sam/variants/arduino_due_x/libsam_sam3x8e_gcc_rel.a(pwmc.o)
PWMC_SetPeriod                                    C:/Arduino/hardware/arduino/sam/variants/arduino_due_x/libsam_sam3x8e_gcc_rel.a(pwmc.o)
                                                  C:/Users/jon_000/Git/ALFRED_TEST/Release/arduino.ar(wiring_analog.c.o)
PWMC_SetSyncChannelUpdatePeriod                   C:/Arduino/hardware/arduino/sam/variants/arduino_due_x/libsam_sam3x8e_gcc_rel.a(pwmc.o)
PWMC_SetSyncChannelUpdateUnlock                   C:/Arduino/hardware/arduino/sam/variants/arduino_due_x/libsam_sam3x8e_gcc_rel.a(pwmc.o)
PWMC_WriteBuffer                                  C:/Arduino/hardware/arduino/sam/variants/arduino_due_x/libsam_sam3x8e_gcc_rel.a(pwmc.o)
PWM_Handler                                       C:/Users/jon_000/Git/ALFRED_TEST/Release/arduino.ar(cortex_handlers.c.o)
                                                  C:/Arduino/hardware/arduino/sam/variants/arduino_due_x/libsam_sam3x8e_gcc_rel.a(startup_sam3xa.o)
PendSV_Handler                                    C:/Users/jon_000/Git/ALFRED_TEST/Release/arduino.ar(cortex_handlers.c.o)
                                                  C:/Arduino/hardware/arduino/sam/variants/arduino_due_x/libsam_sam3x8e_gcc_rel.a(startup_sam3xa.o)
Print::print(Printable const&)                    C:/Users/jon_000/Git/ALFRED_TEST/Release/arduino.ar(Print.cpp.o)
Print::print(String const&)                       C:/Users/jon_000/Git/ALFRED_TEST/Release/arduino.ar(Print.cpp.o)
Print::print(__FlashStringHelper const*)          C:/Users/jon_000/Git/ALFRED_TEST/Release/arduino.ar(Print.cpp.o)
Print::print(char const*)                         C:/Users/jon_000/Git/ALFRED_TEST/Release/arduino.ar(Print.cpp.o)
                                                  ./ALFRED_TEST.cpp.o
Print::print(char)                                C:/Users/jon_000/Git/ALFRED_TEST/Release/arduino.ar(Print.cpp.o)
Print::print(double, int)                         C:/Users/jon_000/Git/ALFRED_TEST/Release/arduino.ar(Print.cpp.o)
Print::print(int, int)                            C:/Users/jon_000/Git/ALFRED_TEST/Release/arduino.ar(Print.cpp.o)
                                                  ./ALFRED_TEST.cpp.o
Print::print(long, int)                           C:/Users/jon_000/Git/ALFRED_TEST/Release/arduino.ar(Print.cpp.o)
Print::print(unsigned char, int)                  C:/Users/jon_000/Git/ALFRED_TEST/Release/arduino.ar(Print.cpp.o)
Print::print(unsigned int, int)                   C:/Users/jon_000/Git/ALFRED_TEST/Release/arduino.ar(Print.cpp.o)
Print::print(unsigned long, int)                  C:/Users/jon_000/Git/ALFRED_TEST/Release/arduino.ar(Print.cpp.o)
Print::printFloat(double, unsigned char)          C:/Users/jon_000/Git/ALFRED_TEST/Release/arduino.ar(Print.cpp.o)
Print::printNumber(unsigned long, unsigned char)  C:/Users/jon_000/Git/ALFRED_TEST/Release/arduino.ar(Print.cpp.o)
Print::println()                                  C:/Users/jon_000/Git/ALFRED_TEST/Release/arduino.ar(Print.cpp.o)
Print::println(Printable const&)                  C:/Users/jon_000/Git/ALFRED_TEST/Release/arduino.ar(Print.cpp.o)
Print::println(String const&)                     C:/Users/jon_000/Git/ALFRED_TEST/Release/arduino.ar(Print.cpp.o)
Print::println(__FlashStringHelper const*)        C:/Users/jon_000/Git/ALFRED_TEST/Release/arduino.ar(Print.cpp.o)
Print::println(char const*)                       C:/Users/jon_000/Git/ALFRED_TEST/Release/arduino.ar(Print.cpp.o)
                                                  ./ALFRED_TEST.cpp.o
Print::println(char)                              C:/Users/jon_000/Git/ALFRED_TEST/Release/arduino.ar(Print.cpp.o)
Print::println(double, int)                       C:/Users/jon_000/Git/ALFRED_TEST/Release/arduino.ar(Print.cpp.o)
Print::println(int, int)                          C:/Users/jon_000/Git/ALFRED_TEST/Release/arduino.ar(Print.cpp.o)
                                                  ./ALFRED_TEST.cpp.o
Print::println(long, int)                         C:/Users/jon_000/Git/ALFRED_TEST/Release/arduino.ar(Print.cpp.o)
Print::println(unsigned char, int)                C:/Users/jon_000/Git/ALFRED_TEST/Release/arduino.ar(Print.cpp.o)
Print::println(unsigned int, int)                 C:/Users/jon_000/Git/ALFRED_TEST/Release/arduino.ar(Print.cpp.o)
Print::println(unsigned long, int)                C:/Users/jon_000/Git/ALFRED_TEST/Release/arduino.ar(Print.cpp.o)
Print::write(char const*)                         C:/Users/jon_000/Git/ALFRED_TEST/Release/arduino.ar(Print.cpp.o)
Print::write(unsigned char const*, unsigned int)  C:/Users/jon_000/Git/ALFRED_TEST/Release/arduino.ar(Print.cpp.o)
                                                  C:/Users/jon_000/Git/ALFRED_TEST/Release/arduino.ar(HID.cpp.o)
                                                  C:/Users/jon_000/Git/ALFRED_TEST/Release/arduino.ar(CDC.cpp.o)
                                                  C:/Users/jon_000/Git/ALFRED_TEST/Release/arduino.ar(USARTClass.cpp.o)
                                                  C:/Users/jon_000/Git/ALFRED_TEST/Release/arduino.ar(UARTClass.cpp.o)
RSTC_Handler                                      C:/Users/jon_000/Git/ALFRED_TEST/Release/arduino.ar(cortex_handlers.c.o)
                                                  C:/Arduino/hardware/arduino/sam/variants/arduino_due_x/libsam_sam3x8e_gcc_rel.a(startup_sam3xa.o)
RTC_Handler                                       C:/Users/jon_000/Git/ALFRED_TEST/Release/arduino.ar(cortex_handlers.c.o)
                                                  C:/Arduino/hardware/arduino/sam/variants/arduino_due_x/libsam_sam3x8e_gcc_rel.a(startup_sam3xa.o)
RTT_Handler                                       C:/Users/jon_000/Git/ALFRED_TEST/Release/arduino.ar(cortex_handlers.c.o)
                                                  C:/Arduino/hardware/arduino/sam/variants/arduino_due_x/libsam_sam3x8e_gcc_rel.a(startup_sam3xa.o)
Reset_Handler                                     C:/Arduino/hardware/arduino/sam/variants/arduino_due_x/libsam_sam3x8e_gcc_rel.a(startup_sam3xa.o)
RingBuffer::RingBuffer()                          C:/Users/jon_000/Git/ALFRED_TEST/Release/arduino.ar(RingBuffer.cpp.o)
                                                  C:/Users/jon_000/Git/ALFRED_TEST/Release/arduino.ar(variant.cpp.o)
RingBuffer::RingBuffer()                          C:/Users/jon_000/Git/ALFRED_TEST/Release/arduino.ar(RingBuffer.cpp.o)
RingBuffer::store_char(unsigned char)             C:/Users/jon_000/Git/ALFRED_TEST/Release/arduino.ar(RingBuffer.cpp.o)
                                                  C:/Users/jon_000/Git/ALFRED_TEST/Release/arduino.ar(USARTClass.cpp.o)
                                                  C:/Users/jon_000/Git/ALFRED_TEST/Release/arduino.ar(UARTClass.cpp.o)
RxLEDPulse                                        C:/Users/jon_000/Git/ALFRED_TEST/Release/arduino.ar(USBCore.cpp.o)
SMC_Handler                                       C:/Users/jon_000/Git/ALFRED_TEST/Release/arduino.ar(cortex_handlers.c.o)
                                                  C:/Arduino/hardware/arduino/sam/variants/arduino_due_x/libsam_sam3x8e_gcc_rel.a(startup_sam3xa.o)
SPI0_Handler                                      C:/Users/jon_000/Git/ALFRED_TEST/Release/arduino.ar(cortex_handlers.c.o)
                                                  C:/Arduino/hardware/arduino/sam/variants/arduino_due_x/libsam_sam3x8e_gcc_rel.a(startup_sam3xa.o)
SSC_Handler                                       C:/Users/jon_000/Git/ALFRED_TEST/Release/arduino.ar(cortex_handlers.c.o)
                                                  C:/Arduino/hardware/arduino/sam/variants/arduino_due_x/libsam_sam3x8e_gcc_rel.a(startup_sam3xa.o)
STRING_LANGUAGE                                   C:/Users/jon_000/Git/ALFRED_TEST/Release/arduino.ar(USBCore.cpp.o)
STRING_MANUFACTURER                               C:/Users/jon_000/Git/ALFRED_TEST/Release/arduino.ar(USBCore.cpp.o)
STRING_PRODUCT                                    C:/Users/jon_000/Git/ALFRED_TEST/Release/arduino.ar(USBCore.cpp.o)
SUPC_Handler                                      C:/Users/jon_000/Git/ALFRED_TEST/Release/arduino.ar(cortex_handlers.c.o)
                                                  C:/Arduino/hardware/arduino/sam/variants/arduino_due_x/libsam_sam3x8e_gcc_rel.a(startup_sam3xa.o)
SVC_Handler                                       C:/Users/jon_000/Git/ALFRED_TEST/Release/arduino.ar(cortex_handlers.c.o)
                                                  C:/Arduino/hardware/arduino/sam/variants/arduino_due_x/libsam_sam3x8e_gcc_rel.a(startup_sam3xa.o)
Serial                                            C:/Users/jon_000/Git/ALFRED_TEST/Release/arduino.ar(variant.cpp.o)
                                                  ./ALFRED_TEST.cpp.o
Serial1                                           C:/Users/jon_000/Git/ALFRED_TEST/Release/arduino.ar(variant.cpp.o)
                                                  ./ALFRED_TEST.cpp.o
Serial2                                           C:/Users/jon_000/Git/ALFRED_TEST/Release/arduino.ar(variant.cpp.o)
Serial3                                           C:/Users/jon_000/Git/ALFRED_TEST/Release/arduino.ar(variant.cpp.o)
SerialUSB                                         C:/Users/jon_000/Git/ALFRED_TEST/Release/arduino.ar(CDC.cpp.o)
                                                  C:/Users/jon_000/Git/ALFRED_TEST/Release/arduino.ar(USBCore.cpp.o)
Serial_::accept()                                 C:/Users/jon_000/Git/ALFRED_TEST/Release/arduino.ar(CDC.cpp.o)
                                                  C:/Users/jon_000/Git/ALFRED_TEST/Release/arduino.ar(USBCore.cpp.o)
Serial_::available()                              C:/Users/jon_000/Git/ALFRED_TEST/Release/arduino.ar(CDC.cpp.o)
Serial_::begin(unsigned long)                     C:/Users/jon_000/Git/ALFRED_TEST/Release/arduino.ar(CDC.cpp.o)
Serial_::begin(unsigned long, unsigned char)      C:/Users/jon_000/Git/ALFRED_TEST/Release/arduino.ar(CDC.cpp.o)
Serial_::end()                                    C:/Users/jon_000/Git/ALFRED_TEST/Release/arduino.ar(CDC.cpp.o)
Serial_::flush()                                  C:/Users/jon_000/Git/ALFRED_TEST/Release/arduino.ar(CDC.cpp.o)
Serial_::operator bool()                          C:/Users/jon_000/Git/ALFRED_TEST/Release/arduino.ar(CDC.cpp.o)
Serial_::peek()                                   C:/Users/jon_000/Git/ALFRED_TEST/Release/arduino.ar(CDC.cpp.o)
Serial_::read()                                   C:/Users/jon_000/Git/ALFRED_TEST/Release/arduino.ar(CDC.cpp.o)
Serial_::write(unsigned char const*, unsigned int) C:/Users/jon_000/Git/ALFRED_TEST/Release/arduino.ar(CDC.cpp.o)
Serial_::write(unsigned char)                     C:/Users/jon_000/Git/ALFRED_TEST/Release/arduino.ar(CDC.cpp.o)
Sleep                                             C:/Arduino/hardware/arduino/sam/variants/arduino_due_x/libsam_sam3x8e_gcc_rel.a(timetick.o)
Stream::find(char*)                               C:/Users/jon_000/Git/ALFRED_TEST/Release/arduino.ar(Stream.cpp.o)
Stream::find(char*, unsigned int)                 C:/Users/jon_000/Git/ALFRED_TEST/Release/arduino.ar(Stream.cpp.o)
Stream::findUntil(char*, char*)                   C:/Users/jon_000/Git/ALFRED_TEST/Release/arduino.ar(Stream.cpp.o)
Stream::findUntil(char*, unsigned int, char*, unsigned int) C:/Users/jon_000/Git/ALFRED_TEST/Release/arduino.ar(Stream.cpp.o)
Stream::parseFloat()                              C:/Users/jon_000/Git/ALFRED_TEST/Release/arduino.ar(Stream.cpp.o)
Stream::parseFloat(char)                          C:/Users/jon_000/Git/ALFRED_TEST/Release/arduino.ar(Stream.cpp.o)
Stream::parseInt()                                C:/Users/jon_000/Git/ALFRED_TEST/Release/arduino.ar(Stream.cpp.o)
Stream::parseInt(char)                            C:/Users/jon_000/Git/ALFRED_TEST/Release/arduino.ar(Stream.cpp.o)
Stream::peekNextDigit()                           C:/Users/jon_000/Git/ALFRED_TEST/Release/arduino.ar(Stream.cpp.o)
Stream::readBytes(char*, unsigned int)            C:/Users/jon_000/Git/ALFRED_TEST/Release/arduino.ar(Stream.cpp.o)
Stream::readBytesUntil(char, char*, unsigned int) C:/Users/jon_000/Git/ALFRED_TEST/Release/arduino.ar(Stream.cpp.o)
                                                  ./ALFRED_TEST.cpp.o
Stream::readString()                              C:/Users/jon_000/Git/ALFRED_TEST/Release/arduino.ar(Stream.cpp.o)
Stream::readStringUntil(char)                     C:/Users/jon_000/Git/ALFRED_TEST/Release/arduino.ar(Stream.cpp.o)
Stream::setTimeout(unsigned long)                 C:/Users/jon_000/Git/ALFRED_TEST/Release/arduino.ar(Stream.cpp.o)
Stream::timedPeek()                               C:/Users/jon_000/Git/ALFRED_TEST/Release/arduino.ar(Stream.cpp.o)
Stream::timedRead()                               C:/Users/jon_000/Git/ALFRED_TEST/Release/arduino.ar(Stream.cpp.o)
String::String(String const&)                     C:/Users/jon_000/Git/ALFRED_TEST/Release/arduino.ar(WString.cpp.o)
String::String(String const&)                     C:/Users/jon_000/Git/ALFRED_TEST/Release/arduino.ar(WString.cpp.o)
String::String(__FlashStringHelper const*)        C:/Users/jon_000/Git/ALFRED_TEST/Release/arduino.ar(WString.cpp.o)
String::String(__FlashStringHelper const*)        C:/Users/jon_000/Git/ALFRED_TEST/Release/arduino.ar(WString.cpp.o)
String::String(char const*)                       C:/Users/jon_000/Git/ALFRED_TEST/Release/arduino.ar(WString.cpp.o)
String::String(char const*)                       C:/Users/jon_000/Git/ALFRED_TEST/Release/arduino.ar(WString.cpp.o)
                                                  C:/Users/jon_000/Git/ALFRED_TEST/Release/arduino.ar(Stream.cpp.o)
String::String(char)                              C:/Users/jon_000/Git/ALFRED_TEST/Release/arduino.ar(WString.cpp.o)
String::String(char)                              C:/Users/jon_000/Git/ALFRED_TEST/Release/arduino.ar(WString.cpp.o)
String::String(double, unsigned char)             C:/Users/jon_000/Git/ALFRED_TEST/Release/arduino.ar(WString.cpp.o)
String::String(double, unsigned char)             C:/Users/jon_000/Git/ALFRED_TEST/Release/arduino.ar(WString.cpp.o)
String::String(float, unsigned char)              C:/Users/jon_000/Git/ALFRED_TEST/Release/arduino.ar(WString.cpp.o)
String::String(float, unsigned char)              C:/Users/jon_000/Git/ALFRED_TEST/Release/arduino.ar(WString.cpp.o)
String::String(int, unsigned char)                C:/Users/jon_000/Git/ALFRED_TEST/Release/arduino.ar(WString.cpp.o)
String::String(int, unsigned char)                C:/Users/jon_000/Git/ALFRED_TEST/Release/arduino.ar(WString.cpp.o)
String::String(long, unsigned char)               C:/Users/jon_000/Git/ALFRED_TEST/Release/arduino.ar(WString.cpp.o)
String::String(long, unsigned char)               C:/Users/jon_000/Git/ALFRED_TEST/Release/arduino.ar(WString.cpp.o)
String::String(unsigned char, unsigned char)      C:/Users/jon_000/Git/ALFRED_TEST/Release/arduino.ar(WString.cpp.o)
String::String(unsigned char, unsigned char)      C:/Users/jon_000/Git/ALFRED_TEST/Release/arduino.ar(WString.cpp.o)
String::String(unsigned int, unsigned char)       C:/Users/jon_000/Git/ALFRED_TEST/Release/arduino.ar(WString.cpp.o)
String::String(unsigned int, unsigned char)       C:/Users/jon_000/Git/ALFRED_TEST/Release/arduino.ar(WString.cpp.o)
String::String(unsigned long, unsigned char)      C:/Users/jon_000/Git/ALFRED_TEST/Release/arduino.ar(WString.cpp.o)
String::String(unsigned long, unsigned char)      C:/Users/jon_000/Git/ALFRED_TEST/Release/arduino.ar(WString.cpp.o)
String::changeBuffer(unsigned int)                C:/Users/jon_000/Git/ALFRED_TEST/Release/arduino.ar(WString.cpp.o)
String::charAt(unsigned int) const                C:/Users/jon_000/Git/ALFRED_TEST/Release/arduino.ar(WString.cpp.o)
String::compareTo(String const&) const            C:/Users/jon_000/Git/ALFRED_TEST/Release/arduino.ar(WString.cpp.o)
String::concat(String const&)                     C:/Users/jon_000/Git/ALFRED_TEST/Release/arduino.ar(WString.cpp.o)
String::concat(__FlashStringHelper const*)        C:/Users/jon_000/Git/ALFRED_TEST/Release/arduino.ar(WString.cpp.o)
String::concat(char const*)                       C:/Users/jon_000/Git/ALFRED_TEST/Release/arduino.ar(WString.cpp.o)
String::concat(char const*, unsigned int)         C:/Users/jon_000/Git/ALFRED_TEST/Release/arduino.ar(WString.cpp.o)
String::concat(char)                              C:/Users/jon_000/Git/ALFRED_TEST/Release/arduino.ar(WString.cpp.o)
                                                  C:/Users/jon_000/Git/ALFRED_TEST/Release/arduino.ar(Stream.cpp.o)
String::concat(double)                            C:/Users/jon_000/Git/ALFRED_TEST/Release/arduino.ar(WString.cpp.o)
String::concat(float)                             C:/Users/jon_000/Git/ALFRED_TEST/Release/arduino.ar(WString.cpp.o)
String::concat(int)                               C:/Users/jon_000/Git/ALFRED_TEST/Release/arduino.ar(WString.cpp.o)
String::concat(long)                              C:/Users/jon_000/Git/ALFRED_TEST/Release/arduino.ar(WString.cpp.o)
String::concat(unsigned char)                     C:/Users/jon_000/Git/ALFRED_TEST/Release/arduino.ar(WString.cpp.o)
String::concat(unsigned int)                      C:/Users/jon_000/Git/ALFRED_TEST/Release/arduino.ar(WString.cpp.o)
String::concat(unsigned long)                     C:/Users/jon_000/Git/ALFRED_TEST/Release/arduino.ar(WString.cpp.o)
String::copy(__FlashStringHelper const*, unsigned int) C:/Users/jon_000/Git/ALFRED_TEST/Release/arduino.ar(WString.cpp.o)
String::copy(char const*, unsigned int)           C:/Users/jon_000/Git/ALFRED_TEST/Release/arduino.ar(WString.cpp.o)
String::endsWith(String const&) const             C:/Users/jon_000/Git/ALFRED_TEST/Release/arduino.ar(WString.cpp.o)
String::equals(String const&) const               C:/Users/jon_000/Git/ALFRED_TEST/Release/arduino.ar(WString.cpp.o)
String::equals(char const*) const                 C:/Users/jon_000/Git/ALFRED_TEST/Release/arduino.ar(WString.cpp.o)
String::equalsIgnoreCase(String const&) const     C:/Users/jon_000/Git/ALFRED_TEST/Release/arduino.ar(WString.cpp.o)
String::getBytes(unsigned char*, unsigned int, unsigned int) const C:/Users/jon_000/Git/ALFRED_TEST/Release/arduino.ar(WString.cpp.o)
String::indexOf(String const&) const              C:/Users/jon_000/Git/ALFRED_TEST/Release/arduino.ar(WString.cpp.o)
String::indexOf(String const&, unsigned int) const C:/Users/jon_000/Git/ALFRED_TEST/Release/arduino.ar(WString.cpp.o)
String::indexOf(char) const                       C:/Users/jon_000/Git/ALFRED_TEST/Release/arduino.ar(WString.cpp.o)
String::indexOf(char, unsigned int) const         C:/Users/jon_000/Git/ALFRED_TEST/Release/arduino.ar(WString.cpp.o)
String::invalidate()                              C:/Users/jon_000/Git/ALFRED_TEST/Release/arduino.ar(WString.cpp.o)
String::lastIndexOf(String const&) const          C:/Users/jon_000/Git/ALFRED_TEST/Release/arduino.ar(WString.cpp.o)
String::lastIndexOf(String const&, unsigned int) const C:/Users/jon_000/Git/ALFRED_TEST/Release/arduino.ar(WString.cpp.o)
String::lastIndexOf(char) const                   C:/Users/jon_000/Git/ALFRED_TEST/Release/arduino.ar(WString.cpp.o)
String::lastIndexOf(char, unsigned int) const     C:/Users/jon_000/Git/ALFRED_TEST/Release/arduino.ar(WString.cpp.o)
String::operator<(String const&) const            C:/Users/jon_000/Git/ALFRED_TEST/Release/arduino.ar(WString.cpp.o)
String::operator<=(String const&) const           C:/Users/jon_000/Git/ALFRED_TEST/Release/arduino.ar(WString.cpp.o)
String::operator=(String const&)                  C:/Users/jon_000/Git/ALFRED_TEST/Release/arduino.ar(WString.cpp.o)
String::operator=(__FlashStringHelper const*)     C:/Users/jon_000/Git/ALFRED_TEST/Release/arduino.ar(WString.cpp.o)
String::operator=(char const*)                    C:/Users/jon_000/Git/ALFRED_TEST/Release/arduino.ar(WString.cpp.o)
String::operator>(String const&) const            C:/Users/jon_000/Git/ALFRED_TEST/Release/arduino.ar(WString.cpp.o)
String::operator>=(String const&) const           C:/Users/jon_000/Git/ALFRED_TEST/Release/arduino.ar(WString.cpp.o)
String::operator[](unsigned int)                  C:/Users/jon_000/Git/ALFRED_TEST/Release/arduino.ar(WString.cpp.o)
String::operator[](unsigned int) const            C:/Users/jon_000/Git/ALFRED_TEST/Release/arduino.ar(WString.cpp.o)
                                                  C:/Users/jon_000/Git/ALFRED_TEST/Release/arduino.ar(Print.cpp.o)
String::remove(unsigned int)                      C:/Users/jon_000/Git/ALFRED_TEST/Release/arduino.ar(WString.cpp.o)
String::remove(unsigned int, unsigned int)        C:/Users/jon_000/Git/ALFRED_TEST/Release/arduino.ar(WString.cpp.o)
String::replace(String const&, String const&)     C:/Users/jon_000/Git/ALFRED_TEST/Release/arduino.ar(WString.cpp.o)
String::replace(char, char)                       C:/Users/jon_000/Git/ALFRED_TEST/Release/arduino.ar(WString.cpp.o)
String::reserve(unsigned int)                     C:/Users/jon_000/Git/ALFRED_TEST/Release/arduino.ar(WString.cpp.o)
String::setCharAt(unsigned int, char)             C:/Users/jon_000/Git/ALFRED_TEST/Release/arduino.ar(WString.cpp.o)
String::startsWith(String const&) const           C:/Users/jon_000/Git/ALFRED_TEST/Release/arduino.ar(WString.cpp.o)
String::startsWith(String const&, unsigned int) const C:/Users/jon_000/Git/ALFRED_TEST/Release/arduino.ar(WString.cpp.o)
String::substring(unsigned int, unsigned int) const C:/Users/jon_000/Git/ALFRED_TEST/Release/arduino.ar(WString.cpp.o)
String::toFloat() const                           C:/Users/jon_000/Git/ALFRED_TEST/Release/arduino.ar(WString.cpp.o)
String::toInt() const                             C:/Users/jon_000/Git/ALFRED_TEST/Release/arduino.ar(WString.cpp.o)
String::toLowerCase()                             C:/Users/jon_000/Git/ALFRED_TEST/Release/arduino.ar(WString.cpp.o)
String::toUpperCase()                             C:/Users/jon_000/Git/ALFRED_TEST/Release/arduino.ar(WString.cpp.o)
String::trim()                                    C:/Users/jon_000/Git/ALFRED_TEST/Release/arduino.ar(WString.cpp.o)
String::~String()                                 C:/Users/jon_000/Git/ALFRED_TEST/Release/arduino.ar(WString.cpp.o)
String::~String()                                 C:/Users/jon_000/Git/ALFRED_TEST/Release/arduino.ar(WString.cpp.o)
SysTick_Handler                                   C:/Users/jon_000/Git/ALFRED_TEST/Release/arduino.ar(cortex_handlers.c.o)
                                                  C:/Arduino/hardware/arduino/sam/variants/arduino_due_x/libsam_sam3x8e_gcc_rel.a(startup_sam3xa.o)
SystemCoreClock                                   C:/Arduino/hardware/arduino/sam/variants/arduino_due_x/libsam_sam3x8e_gcc_rel.a(system_sam3xa.o)
                                                  C:/Users/jon_000/Git/ALFRED_TEST/Release/arduino.ar(USARTClass.cpp.o)
                                                  C:/Users/jon_000/Git/ALFRED_TEST/Release/arduino.ar(UARTClass.cpp.o)
                                                  C:/Users/jon_000/Git/ALFRED_TEST/Release/arduino.ar(variant.cpp.o)
SystemCoreClockUpdate                             C:/Arduino/hardware/arduino/sam/variants/arduino_due_x/libsam_sam3x8e_gcc_rel.a(system_sam3xa.o)
SystemInit                                        C:/Arduino/hardware/arduino/sam/variants/arduino_due_x/libsam_sam3x8e_gcc_rel.a(system_sam3xa.o)
                                                  C:/Users/jon_000/Git/ALFRED_TEST/Release/arduino.ar(variant.cpp.o)
TC0_Handler                                       ./Libraries/DueTimer/DueTimer.cpp.o
                                                  C:/Arduino/hardware/arduino/sam/variants/arduino_due_x/libsam_sam3x8e_gcc_rel.a(startup_sam3xa.o)
TC1_Handler                                       ./Libraries/DueTimer/DueTimer.cpp.o
                                                  C:/Arduino/hardware/arduino/sam/variants/arduino_due_x/libsam_sam3x8e_gcc_rel.a(startup_sam3xa.o)
TC2_Handler                                       ./Libraries/DueTimer/DueTimer.cpp.o
                                                  C:/Arduino/hardware/arduino/sam/variants/arduino_due_x/libsam_sam3x8e_gcc_rel.a(startup_sam3xa.o)
TC3_Handler                                       ./Libraries/DueTimer/DueTimer.cpp.o
                                                  C:/Arduino/hardware/arduino/sam/variants/arduino_due_x/libsam_sam3x8e_gcc_rel.a(startup_sam3xa.o)
TC4_Handler                                       ./Libraries/DueTimer/DueTimer.cpp.o
                                                  C:/Arduino/hardware/arduino/sam/variants/arduino_due_x/libsam_sam3x8e_gcc_rel.a(startup_sam3xa.o)
TC5_Handler                                       ./Libraries/DueTimer/DueTimer.cpp.o
                                                  C:/Arduino/hardware/arduino/sam/variants/arduino_due_x/libsam_sam3x8e_gcc_rel.a(startup_sam3xa.o)
TC6_Handler                                       ./Libraries/DueTimer/DueTimer.cpp.o
                                                  C:/Arduino/hardware/arduino/sam/variants/arduino_due_x/libsam_sam3x8e_gcc_rel.a(startup_sam3xa.o)
TC7_Handler                                       ./Libraries/DueTimer/DueTimer.cpp.o
                                                  C:/Arduino/hardware/arduino/sam/variants/arduino_due_x/libsam_sam3x8e_gcc_rel.a(startup_sam3xa.o)
TC8_Handler                                       ./Libraries/DueTimer/DueTimer.cpp.o
                                                  C:/Arduino/hardware/arduino/sam/variants/arduino_due_x/libsam_sam3x8e_gcc_rel.a(startup_sam3xa.o)
TC_Configure                                      C:/Arduino/hardware/arduino/sam/variants/arduino_due_x/libsam_sam3x8e_gcc_rel.a(tc.o)
                                                  C:/Users/jon_000/Git/ALFRED_TEST/Release/arduino.ar(wiring_analog.c.o)
                                                  ./Libraries/DueTimer/DueTimer.cpp.o
TC_FindMckDivisor                                 C:/Arduino/hardware/arduino/sam/variants/arduino_due_x/libsam_sam3x8e_gcc_rel.a(tc.o)
TC_GetStatus                                      C:/Arduino/hardware/arduino/sam/variants/arduino_due_x/libsam_sam3x8e_gcc_rel.a(tc.o)
                                                  ./Libraries/DueTimer/DueTimer.cpp.o
TC_ReadCV                                         C:/Arduino/hardware/arduino/sam/variants/arduino_due_x/libsam_sam3x8e_gcc_rel.a(tc.o)
TC_SetRA                                          C:/Arduino/hardware/arduino/sam/variants/arduino_due_x/libsam_sam3x8e_gcc_rel.a(tc.o)
                                                  C:/Users/jon_000/Git/ALFRED_TEST/Release/arduino.ar(wiring_analog.c.o)
TC_SetRB                                          C:/Arduino/hardware/arduino/sam/variants/arduino_due_x/libsam_sam3x8e_gcc_rel.a(tc.o)
                                                  C:/Users/jon_000/Git/ALFRED_TEST/Release/arduino.ar(wiring_analog.c.o)
TC_SetRC                                          C:/Arduino/hardware/arduino/sam/variants/arduino_due_x/libsam_sam3x8e_gcc_rel.a(tc.o)
                                                  C:/Users/jon_000/Git/ALFRED_TEST/Release/arduino.ar(wiring_analog.c.o)
                                                  ./Libraries/DueTimer/DueTimer.cpp.o
TC_Start                                          C:/Arduino/hardware/arduino/sam/variants/arduino_due_x/libsam_sam3x8e_gcc_rel.a(tc.o)
                                                  C:/Users/jon_000/Git/ALFRED_TEST/Release/arduino.ar(wiring_analog.c.o)
                                                  ./Libraries/DueTimer/DueTimer.cpp.o
TC_Stop                                           C:/Arduino/hardware/arduino/sam/variants/arduino_due_x/libsam_sam3x8e_gcc_rel.a(tc.o)
                                                  ./Libraries/DueTimer/DueTimer.cpp.o
TRNG_Handler                                      C:/Users/jon_000/Git/ALFRED_TEST/Release/arduino.ar(cortex_handlers.c.o)
                                                  C:/Arduino/hardware/arduino/sam/variants/arduino_due_x/libsam_sam3x8e_gcc_rel.a(startup_sam3xa.o)
TWI0_Handler                                      C:/Users/jon_000/Git/ALFRED_TEST/Release/arduino.ar(cortex_handlers.c.o)
                                                  C:/Arduino/hardware/arduino/sam/variants/arduino_due_x/libsam_sam3x8e_gcc_rel.a(startup_sam3xa.o)
TWI1_Handler                                      C:/Users/jon_000/Git/ALFRED_TEST/Release/arduino.ar(cortex_handlers.c.o)
                                                  C:/Arduino/hardware/arduino/sam/variants/arduino_due_x/libsam_sam3x8e_gcc_rel.a(startup_sam3xa.o)
TimeTick_Configure                                C:/Arduino/hardware/arduino/sam/variants/arduino_due_x/libsam_sam3x8e_gcc_rel.a(timetick.o)
TimeTick_Increment                                C:/Arduino/hardware/arduino/sam/variants/arduino_due_x/libsam_sam3x8e_gcc_rel.a(timetick.o)
                                                  C:/Users/jon_000/Git/ALFRED_TEST/Release/arduino.ar(cortex_handlers.c.o)
Timer                                             ./Libraries/DueTimer/DueTimer.cpp.o
Timer0                                            ./Libraries/DueTimer/DueTimer.cpp.o
Timer1                                            ./Libraries/DueTimer/DueTimer.cpp.o
Timer2                                            ./Libraries/DueTimer/DueTimer.cpp.o
                                                  ./ALFRED_TEST.cpp.o
Timer2Period                                      ./ALFRED_TEST.cpp.o
Timer3                                            ./Libraries/DueTimer/DueTimer.cpp.o
Timer4                                            ./Libraries/DueTimer/DueTimer.cpp.o
Timer5                                            ./Libraries/DueTimer/DueTimer.cpp.o
Timer6                                            ./Libraries/DueTimer/DueTimer.cpp.o
Timer7                                            ./Libraries/DueTimer/DueTimer.cpp.o
Timer8                                            ./Libraries/DueTimer/DueTimer.cpp.o
TxLEDPulse                                        C:/Users/jon_000/Git/ALFRED_TEST/Release/arduino.ar(USBCore.cpp.o)
UARTClass::IrqHandler()                           C:/Users/jon_000/Git/ALFRED_TEST/Release/arduino.ar(UARTClass.cpp.o)
                                                  C:/Users/jon_000/Git/ALFRED_TEST/Release/arduino.ar(variant.cpp.o)
UARTClass::UARTClass(Uart*, IRQn, unsigned long, RingBuffer*) C:/Users/jon_000/Git/ALFRED_TEST/Release/arduino.ar(UARTClass.cpp.o)
UARTClass::UARTClass(Uart*, IRQn, unsigned long, RingBuffer*) C:/Users/jon_000/Git/ALFRED_TEST/Release/arduino.ar(UARTClass.cpp.o)
                                                  C:/Users/jon_000/Git/ALFRED_TEST/Release/arduino.ar(variant.cpp.o)
UARTClass::available()                            C:/Users/jon_000/Git/ALFRED_TEST/Release/arduino.ar(UARTClass.cpp.o)
                                                  C:/Users/jon_000/Git/ALFRED_TEST/Release/arduino.ar(variant.cpp.o)
UARTClass::begin(unsigned long)                   C:/Users/jon_000/Git/ALFRED_TEST/Release/arduino.ar(UARTClass.cpp.o)
                                                  ./ALFRED_TEST.cpp.o
UARTClass::end()                                  C:/Users/jon_000/Git/ALFRED_TEST/Release/arduino.ar(UARTClass.cpp.o)
UARTClass::flush()                                C:/Users/jon_000/Git/ALFRED_TEST/Release/arduino.ar(UARTClass.cpp.o)
UARTClass::operator bool()                        C:/Users/jon_000/Git/ALFRED_TEST/Release/arduino.ar(UARTClass.cpp.o)
UARTClass::peek()                                 C:/Users/jon_000/Git/ALFRED_TEST/Release/arduino.ar(UARTClass.cpp.o)
UARTClass::read()                                 C:/Users/jon_000/Git/ALFRED_TEST/Release/arduino.ar(UARTClass.cpp.o)
UARTClass::write(unsigned char)                   C:/Users/jon_000/Git/ALFRED_TEST/Release/arduino.ar(UARTClass.cpp.o)
UART_Handler                                      C:/Users/jon_000/Git/ALFRED_TEST/Release/arduino.ar(variant.cpp.o)
                                                  C:/Arduino/hardware/arduino/sam/variants/arduino_due_x/libsam_sam3x8e_gcc_rel.a(startup_sam3xa.o)
UDD_Attach                                        C:/Arduino/hardware/arduino/sam/variants/arduino_due_x/libsam_sam3x8e_gcc_rel.a(uotghs_device.o)
                                                  C:/Users/jon_000/Git/ALFRED_TEST/Release/arduino.ar(USBCore.cpp.o)
UDD_ClearIN                                       C:/Arduino/hardware/arduino/sam/variants/arduino_due_x/libsam_sam3x8e_gcc_rel.a(uotghs_device.o)
                                                  C:/Users/jon_000/Git/ALFRED_TEST/Release/arduino.ar(USBCore.cpp.o)
UDD_ClearOUT                                      C:/Arduino/hardware/arduino/sam/variants/arduino_due_x/libsam_sam3x8e_gcc_rel.a(uotghs_device.o)
                                                  C:/Users/jon_000/Git/ALFRED_TEST/Release/arduino.ar(USBCore.cpp.o)
UDD_ClearSetupInt                                 C:/Arduino/hardware/arduino/sam/variants/arduino_due_x/libsam_sam3x8e_gcc_rel.a(uotghs_device.o)
                                                  C:/Users/jon_000/Git/ALFRED_TEST/Release/arduino.ar(USBCore.cpp.o)
UDD_Detach                                        C:/Arduino/hardware/arduino/sam/variants/arduino_due_x/libsam_sam3x8e_gcc_rel.a(uotghs_device.o)
                                                  C:/Users/jon_000/Git/ALFRED_TEST/Release/arduino.ar(USBCore.cpp.o)
UDD_FifoByteCount                                 C:/Arduino/hardware/arduino/sam/variants/arduino_due_x/libsam_sam3x8e_gcc_rel.a(uotghs_device.o)
                                                  C:/Users/jon_000/Git/ALFRED_TEST/Release/arduino.ar(USBCore.cpp.o)
UDD_GetFrameNumber                                C:/Arduino/hardware/arduino/sam/variants/arduino_due_x/libsam_sam3x8e_gcc_rel.a(uotghs_device.o)
                                                  C:/Users/jon_000/Git/ALFRED_TEST/Release/arduino.ar(USBCore.cpp.o)
UDD_Init                                          C:/Arduino/hardware/arduino/sam/variants/arduino_due_x/libsam_sam3x8e_gcc_rel.a(uotghs_device.o)
                                                  C:/Users/jon_000/Git/ALFRED_TEST/Release/arduino.ar(USBCore.cpp.o)
UDD_InitEP                                        C:/Arduino/hardware/arduino/sam/variants/arduino_due_x/libsam_sam3x8e_gcc_rel.a(uotghs_device.o)
                                                  C:/Users/jon_000/Git/ALFRED_TEST/Release/arduino.ar(USBCore.cpp.o)
UDD_InitEndpoints                                 C:/Arduino/hardware/arduino/sam/variants/arduino_due_x/libsam_sam3x8e_gcc_rel.a(uotghs_device.o)
                                                  C:/Users/jon_000/Git/ALFRED_TEST/Release/arduino.ar(USBCore.cpp.o)
UDD_ReadWriteAllowed                              C:/Arduino/hardware/arduino/sam/variants/arduino_due_x/libsam_sam3x8e_gcc_rel.a(uotghs_device.o)
UDD_ReceivedSetupInt                              C:/Arduino/hardware/arduino/sam/variants/arduino_due_x/libsam_sam3x8e_gcc_rel.a(uotghs_device.o)
                                                  C:/Users/jon_000/Git/ALFRED_TEST/Release/arduino.ar(USBCore.cpp.o)
UDD_Recv                                          C:/Arduino/hardware/arduino/sam/variants/arduino_due_x/libsam_sam3x8e_gcc_rel.a(uotghs_device.o)
                                                  C:/Users/jon_000/Git/ALFRED_TEST/Release/arduino.ar(USBCore.cpp.o)
UDD_Recv8                                         C:/Arduino/hardware/arduino/sam/variants/arduino_due_x/libsam_sam3x8e_gcc_rel.a(uotghs_device.o)
                                                  C:/Users/jon_000/Git/ALFRED_TEST/Release/arduino.ar(USBCore.cpp.o)
UDD_ReleaseRX                                     C:/Arduino/hardware/arduino/sam/variants/arduino_due_x/libsam_sam3x8e_gcc_rel.a(uotghs_device.o)
                                                  C:/Users/jon_000/Git/ALFRED_TEST/Release/arduino.ar(USBCore.cpp.o)
UDD_ReleaseTX                                     C:/Arduino/hardware/arduino/sam/variants/arduino_due_x/libsam_sam3x8e_gcc_rel.a(uotghs_device.o)
                                                  C:/Users/jon_000/Git/ALFRED_TEST/Release/arduino.ar(USBCore.cpp.o)
UDD_Send                                          C:/Arduino/hardware/arduino/sam/variants/arduino_due_x/libsam_sam3x8e_gcc_rel.a(uotghs_device.o)
                                                  C:/Users/jon_000/Git/ALFRED_TEST/Release/arduino.ar(USBCore.cpp.o)
UDD_Send8                                         C:/Arduino/hardware/arduino/sam/variants/arduino_due_x/libsam_sam3x8e_gcc_rel.a(uotghs_device.o)
                                                  C:/Users/jon_000/Git/ALFRED_TEST/Release/arduino.ar(USBCore.cpp.o)
UDD_SetAddress                                    C:/Arduino/hardware/arduino/sam/variants/arduino_due_x/libsam_sam3x8e_gcc_rel.a(uotghs_device.o)
                                                  C:/Users/jon_000/Git/ALFRED_TEST/Release/arduino.ar(USBCore.cpp.o)
UDD_SetStack                                      C:/Arduino/hardware/arduino/sam/variants/arduino_due_x/libsam_sam3x8e_gcc_rel.a(uotghs_device.o)
                                                  C:/Users/jon_000/Git/ALFRED_TEST/Release/arduino.ar(USBCore.cpp.o)
UDD_Stall                                         C:/Arduino/hardware/arduino/sam/variants/arduino_due_x/libsam_sam3x8e_gcc_rel.a(uotghs_device.o)
                                                  C:/Users/jon_000/Git/ALFRED_TEST/Release/arduino.ar(USBCore.cpp.o)
UDD_WaitForINOrOUT                                C:/Arduino/hardware/arduino/sam/variants/arduino_due_x/libsam_sam3x8e_gcc_rel.a(uotghs_device.o)
UDD_WaitIN                                        C:/Arduino/hardware/arduino/sam/variants/arduino_due_x/libsam_sam3x8e_gcc_rel.a(uotghs_device.o)
                                                  C:/Users/jon_000/Git/ALFRED_TEST/Release/arduino.ar(USBCore.cpp.o)
UDD_WaitOUT                                       C:/Arduino/hardware/arduino/sam/variants/arduino_due_x/libsam_sam3x8e_gcc_rel.a(uotghs_device.o)
                                                  C:/Users/jon_000/Git/ALFRED_TEST/Release/arduino.ar(USBCore.cpp.o)
UOTGHS_Handler                                    C:/Arduino/hardware/arduino/sam/variants/arduino_due_x/libsam_sam3x8e_gcc_rel.a(uotghs.o)
                                                  C:/Arduino/hardware/arduino/sam/variants/arduino_due_x/libsam_sam3x8e_gcc_rel.a(startup_sam3xa.o)
USART0_Handler                                    C:/Users/jon_000/Git/ALFRED_TEST/Release/arduino.ar(variant.cpp.o)
                                                  C:/Arduino/hardware/arduino/sam/variants/arduino_due_x/libsam_sam3x8e_gcc_rel.a(startup_sam3xa.o)
USART1_Handler                                    C:/Users/jon_000/Git/ALFRED_TEST/Release/arduino.ar(variant.cpp.o)
                                                  C:/Arduino/hardware/arduino/sam/variants/arduino_due_x/libsam_sam3x8e_gcc_rel.a(startup_sam3xa.o)
USART2_Handler                                    C:/Users/jon_000/Git/ALFRED_TEST/Release/arduino.ar(cortex_handlers.c.o)
                                                  C:/Arduino/hardware/arduino/sam/variants/arduino_due_x/libsam_sam3x8e_gcc_rel.a(startup_sam3xa.o)
USART3_Handler                                    C:/Users/jon_000/Git/ALFRED_TEST/Release/arduino.ar(variant.cpp.o)
                                                  C:/Arduino/hardware/arduino/sam/variants/arduino_due_x/libsam_sam3x8e_gcc_rel.a(startup_sam3xa.o)
USARTClass::IrqHandler()                          C:/Users/jon_000/Git/ALFRED_TEST/Release/arduino.ar(USARTClass.cpp.o)
                                                  C:/Users/jon_000/Git/ALFRED_TEST/Release/arduino.ar(variant.cpp.o)
USARTClass::USARTClass(Usart*, IRQn, unsigned long, RingBuffer*) C:/Users/jon_000/Git/ALFRED_TEST/Release/arduino.ar(USARTClass.cpp.o)
                                                  C:/Users/jon_000/Git/ALFRED_TEST/Release/arduino.ar(variant.cpp.o)
USARTClass::USARTClass(Usart*, IRQn, unsigned long, RingBuffer*) C:/Users/jon_000/Git/ALFRED_TEST/Release/arduino.ar(USARTClass.cpp.o)
USARTClass::available()                           C:/Users/jon_000/Git/ALFRED_TEST/Release/arduino.ar(USARTClass.cpp.o)
                                                  C:/Users/jon_000/Git/ALFRED_TEST/Release/arduino.ar(variant.cpp.o)
                                                  ./ALFRED_TEST.cpp.o
USARTClass::begin(unsigned long)                  C:/Users/jon_000/Git/ALFRED_TEST/Release/arduino.ar(USARTClass.cpp.o)
                                                  ./ALFRED_TEST.cpp.o
USARTClass::end()                                 C:/Users/jon_000/Git/ALFRED_TEST/Release/arduino.ar(USARTClass.cpp.o)
USARTClass::flush()                               C:/Users/jon_000/Git/ALFRED_TEST/Release/arduino.ar(USARTClass.cpp.o)
USARTClass::operator bool()                       C:/Users/jon_000/Git/ALFRED_TEST/Release/arduino.ar(USARTClass.cpp.o)
USARTClass::peek()                                C:/Users/jon_000/Git/ALFRED_TEST/Release/arduino.ar(USARTClass.cpp.o)
USARTClass::read()                                C:/Users/jon_000/Git/ALFRED_TEST/Release/arduino.ar(USARTClass.cpp.o)
USARTClass::write(unsigned char)                  C:/Users/jon_000/Git/ALFRED_TEST/Release/arduino.ar(USARTClass.cpp.o)
USBD_Available(unsigned long)                     C:/Users/jon_000/Git/ALFRED_TEST/Release/arduino.ar(USBCore.cpp.o)
                                                  C:/Users/jon_000/Git/ALFRED_TEST/Release/arduino.ar(CDC.cpp.o)
USBD_ClassInterfaceRequest(Setup&)                C:/Users/jon_000/Git/ALFRED_TEST/Release/arduino.ar(USBCore.cpp.o)
USBD_Connected()                                  C:/Users/jon_000/Git/ALFRED_TEST/Release/arduino.ar(USBCore.cpp.o)
USBD_Flush(unsigned long)                         C:/Users/jon_000/Git/ALFRED_TEST/Release/arduino.ar(USBCore.cpp.o)
                                                  C:/Users/jon_000/Git/ALFRED_TEST/Release/arduino.ar(CDC.cpp.o)
USBD_InitControl(int)                             C:/Users/jon_000/Git/ALFRED_TEST/Release/arduino.ar(USBCore.cpp.o)
USBD_Recv(unsigned long)                          C:/Users/jon_000/Git/ALFRED_TEST/Release/arduino.ar(USBCore.cpp.o)
                                                  C:/Users/jon_000/Git/ALFRED_TEST/Release/arduino.ar(CDC.cpp.o)
USBD_Recv(unsigned long, void*, unsigned long)    C:/Users/jon_000/Git/ALFRED_TEST/Release/arduino.ar(USBCore.cpp.o)
USBD_RecvControl(void*, unsigned long)            C:/Users/jon_000/Git/ALFRED_TEST/Release/arduino.ar(USBCore.cpp.o)
                                                  C:/Users/jon_000/Git/ALFRED_TEST/Release/arduino.ar(CDC.cpp.o)
USBD_Send(unsigned long, void const*, unsigned long) C:/Users/jon_000/Git/ALFRED_TEST/Release/arduino.ar(USBCore.cpp.o)
                                                  C:/Users/jon_000/Git/ALFRED_TEST/Release/arduino.ar(HID.cpp.o)
                                                  C:/Users/jon_000/Git/ALFRED_TEST/Release/arduino.ar(CDC.cpp.o)
USBD_SendControl(unsigned char, void const*, unsigned long) C:/Users/jon_000/Git/ALFRED_TEST/Release/arduino.ar(USBCore.cpp.o)
                                                  C:/Users/jon_000/Git/ALFRED_TEST/Release/arduino.ar(HID.cpp.o)
                                                  C:/Users/jon_000/Git/ALFRED_TEST/Release/arduino.ar(CDC.cpp.o)
USBD_SendInterfaces()                             C:/Users/jon_000/Git/ALFRED_TEST/Release/arduino.ar(USBCore.cpp.o)
USBD_SendOtherInterfaces()                        C:/Users/jon_000/Git/ALFRED_TEST/Release/arduino.ar(USBCore.cpp.o)
USBDevice                                         C:/Users/jon_000/Git/ALFRED_TEST/Release/arduino.ar(USBCore.cpp.o)
                                                  C:/Users/jon_000/Git/ALFRED_TEST/Release/arduino.ar(main.cpp.o)
USBDevice_::USBDevice_()                          C:/Users/jon_000/Git/ALFRED_TEST/Release/arduino.ar(USBCore.cpp.o)
USBDevice_::USBDevice_()                          C:/Users/jon_000/Git/ALFRED_TEST/Release/arduino.ar(USBCore.cpp.o)
USBDevice_::attach()                              C:/Users/jon_000/Git/ALFRED_TEST/Release/arduino.ar(USBCore.cpp.o)
                                                  C:/Users/jon_000/Git/ALFRED_TEST/Release/arduino.ar(main.cpp.o)
USBDevice_::configured()                          C:/Users/jon_000/Git/ALFRED_TEST/Release/arduino.ar(USBCore.cpp.o)
USBDevice_::detach()                              C:/Users/jon_000/Git/ALFRED_TEST/Release/arduino.ar(USBCore.cpp.o)
USBDevice_::poll()                                C:/Users/jon_000/Git/ALFRED_TEST/Release/arduino.ar(USBCore.cpp.o)
USB_DeviceDescriptor                              C:/Users/jon_000/Git/ALFRED_TEST/Release/arduino.ar(USBCore.cpp.o)
USB_DeviceDescriptorA                             C:/Users/jon_000/Git/ALFRED_TEST/Release/arduino.ar(USBCore.cpp.o)
UsageFault_Handler                                C:/Users/jon_000/Git/ALFRED_TEST/Release/arduino.ar(cortex_handlers.c.o)
                                                  C:/Arduino/hardware/arduino/sam/variants/arduino_due_x/libsam_sam3x8e_gcc_rel.a(startup_sam3xa.o)
WDT_Disable                                       C:/Arduino/hardware/arduino/sam/variants/arduino_due_x/libsam_sam3x8e_gcc_rel.a(wdt.o)
                                                  C:/Users/jon_000/Git/ALFRED_TEST/Release/arduino.ar(variant.cpp.o)
WDT_Enable                                        C:/Arduino/hardware/arduino/sam/variants/arduino_due_x/libsam_sam3x8e_gcc_rel.a(wdt.o)
WDT_GetPeriod                                     C:/Arduino/hardware/arduino/sam/variants/arduino_due_x/libsam_sam3x8e_gcc_rel.a(wdt.o)
WDT_GetStatus                                     C:/Arduino/hardware/arduino/sam/variants/arduino_due_x/libsam_sam3x8e_gcc_rel.a(wdt.o)
WDT_Handler                                       C:/Users/jon_000/Git/ALFRED_TEST/Release/arduino.ar(cortex_handlers.c.o)
                                                  C:/Arduino/hardware/arduino/sam/variants/arduino_due_x/libsam_sam3x8e_gcc_rel.a(startup_sam3xa.o)
WDT_Restart                                       C:/Arduino/hardware/arduino/sam/variants/arduino_due_x/libsam_sam3x8e_gcc_rel.a(wdt.o)
Wait                                              C:/Arduino/hardware/arduino/sam/variants/arduino_due_x/libsam_sam3x8e_gcc_rel.a(timetick.o)
_Balloc                                           c:/arduino/hardware/tools/g++_arm_none_eabi/bin/../lib/gcc/arm-none-eabi/4.4.1/../../../../arm-none-eabi/lib/thumb2\libc.a(lib_a-mprec.o)
                                                  c:/arduino/hardware/tools/g++_arm_none_eabi/bin/../lib/gcc/arm-none-eabi/4.4.1/../../../../arm-none-eabi/lib/thumb2\libc.a(lib_a-gdtoa-gethex.o)
                                                  c:/arduino/hardware/tools/g++_arm_none_eabi/bin/../lib/gcc/arm-none-eabi/4.4.1/../../../../arm-none-eabi/lib/thumb2\libc.a(lib_a-dtoa.o)
                                                  c:/arduino/hardware/tools/g++_arm_none_eabi/bin/../lib/gcc/arm-none-eabi/4.4.1/../../../../arm-none-eabi/lib/thumb2\libc.a(lib_a-strtod.o)
_Bfree                                            c:/arduino/hardware/tools/g++_arm_none_eabi/bin/../lib/gcc/arm-none-eabi/4.4.1/../../../../arm-none-eabi/lib/thumb2\libc.a(lib_a-mprec.o)
                                                  c:/arduino/hardware/tools/g++_arm_none_eabi/bin/../lib/gcc/arm-none-eabi/4.4.1/../../../../arm-none-eabi/lib/thumb2\libc.a(lib_a-gdtoa-gethex.o)
                                                  c:/arduino/hardware/tools/g++_arm_none_eabi/bin/../lib/gcc/arm-none-eabi/4.4.1/../../../../arm-none-eabi/lib/thumb2\libc.a(lib_a-dtoa.o)
                                                  c:/arduino/hardware/tools/g++_arm_none_eabi/bin/../lib/gcc/arm-none-eabi/4.4.1/../../../../arm-none-eabi/lib/thumb2\libc.a(lib_a-strtod.o)
_Jv_RegisterClasses                               c:/arduino/hardware/tools/g++_arm_none_eabi/bin/../lib/gcc/arm-none-eabi/4.4.1/thumb2/crtbegin.o
_PathLocale                                       c:/arduino/hardware/tools/g++_arm_none_eabi/bin/../lib/gcc/arm-none-eabi/4.4.1/../../../../arm-none-eabi/lib/thumb2\libc.a(lib_a-locale.o)
__adddf3                                          c:/arduino/hardware/tools/g++_arm_none_eabi/bin/../lib/gcc/arm-none-eabi/4.4.1/thumb2\libgcc.a(_arm_addsubdf3.o)
__addsf3                                          c:/arduino/hardware/tools/g++_arm_none_eabi/bin/../lib/gcc/arm-none-eabi/4.4.1/thumb2\libgcc.a(_arm_addsubsf3.o)
__aeabi_cdcmpeq                                   c:/arduino/hardware/tools/g++_arm_none_eabi/bin/../lib/gcc/arm-none-eabi/4.4.1/thumb2\libgcc.a(_arm_cmpdf2.o)
__aeabi_cdcmple                                   c:/arduino/hardware/tools/g++_arm_none_eabi/bin/../lib/gcc/arm-none-eabi/4.4.1/thumb2\libgcc.a(_arm_cmpdf2.o)
__aeabi_cdrcmple                                  c:/arduino/hardware/tools/g++_arm_none_eabi/bin/../lib/gcc/arm-none-eabi/4.4.1/thumb2\libgcc.a(_arm_cmpdf2.o)
__aeabi_cfcmpeq                                   c:/arduino/hardware/tools/g++_arm_none_eabi/bin/../lib/gcc/arm-none-eabi/4.4.1/thumb2\libgcc.a(_arm_cmpsf2.o)
__aeabi_cfcmple                                   c:/arduino/hardware/tools/g++_arm_none_eabi/bin/../lib/gcc/arm-none-eabi/4.4.1/thumb2\libgcc.a(_arm_cmpsf2.o)
__aeabi_cfrcmple                                  c:/arduino/hardware/tools/g++_arm_none_eabi/bin/../lib/gcc/arm-none-eabi/4.4.1/thumb2\libgcc.a(_arm_cmpsf2.o)
__aeabi_d2f                                       c:/arduino/hardware/tools/g++_arm_none_eabi/bin/../lib/gcc/arm-none-eabi/4.4.1/thumb2\libgcc.a(_arm_truncdfsf2.o)
                                                  c:/arduino/hardware/tools/g++_arm_none_eabi/bin/../lib/gcc/arm-none-eabi/4.4.1/../../../../arm-none-eabi/lib/thumb2\libc.a(lib_a-strtod.o)
                                                  C:/Users/jon_000/Git/ALFRED_TEST/Release/arduino.ar(WString.cpp.o)
                                                  C:/Users/jon_000/Git/ALFRED_TEST/Release/arduino.ar(Stream.cpp.o)
                                                  ./Libraries/DueTimer/DueTimer.cpp.o
__aeabi_d2iz                                      c:/arduino/hardware/tools/g++_arm_none_eabi/bin/../lib/gcc/arm-none-eabi/4.4.1/thumb2\libgcc.a(_arm_fixdfsi.o)
                                                  c:/arduino/hardware/tools/g++_arm_none_eabi/bin/../lib/gcc/arm-none-eabi/4.4.1/../../../../arm-none-eabi/lib/thumb2\libc.a(lib_a-dtoa.o)
                                                  c:/arduino/hardware/tools/g++_arm_none_eabi/bin/../lib/gcc/arm-none-eabi/4.4.1/../../../../arm-none-eabi/lib/thumb2\libc.a(lib_a-strtod.o)
                                                  C:/Users/jon_000/Git/ALFRED_TEST/Release/arduino.ar(Print.cpp.o)
                                                  ./Libraries/DueTimer/DueTimer.cpp.o
__aeabi_d2uiz                                     c:/arduino/hardware/tools/g++_arm_none_eabi/bin/../lib/gcc/arm-none-eabi/4.4.1/thumb2\libgcc.a(_arm_fixunsdfsi.o)
                                                  c:/arduino/hardware/tools/g++_arm_none_eabi/bin/../lib/gcc/arm-none-eabi/4.4.1/../../../../arm-none-eabi/lib/thumb2\libc.a(lib_a-strtod.o)
                                                  C:/Users/jon_000/Git/ALFRED_TEST/Release/arduino.ar(Print.cpp.o)
__aeabi_dadd                                      c:/arduino/hardware/tools/g++_arm_none_eabi/bin/../lib/gcc/arm-none-eabi/4.4.1/thumb2\libgcc.a(_arm_addsubdf3.o)
                                                  c:/arduino/hardware/tools/g++_arm_none_eabi/bin/../lib/gcc/arm-none-eabi/4.4.1/../../../../arm-none-eabi/lib/thumb2\libc.a(lib_a-dtoa.o)
                                                  c:/arduino/hardware/tools/g++_arm_none_eabi/bin/../lib/gcc/arm-none-eabi/4.4.1/../../../../arm-none-eabi/lib/thumb2\libc.a(lib_a-strtod.o)
                                                  C:/Users/jon_000/Git/ALFRED_TEST/Release/arduino.ar(Print.cpp.o)
                                                  ./Libraries/DueTimer/DueTimer.cpp.o
__aeabi_dcmpeq                                    c:/arduino/hardware/tools/g++_arm_none_eabi/bin/../lib/gcc/arm-none-eabi/4.4.1/thumb2\libgcc.a(_arm_cmpdf2.o)
                                                  c:/arduino/hardware/tools/g++_arm_none_eabi/bin/../lib/gcc/arm-none-eabi/4.4.1/../../../../arm-none-eabi/lib/thumb2\libc.a(lib_a-dtoa.o)
                                                  c:/arduino/hardware/tools/g++_arm_none_eabi/bin/../lib/gcc/arm-none-eabi/4.4.1/../../../../arm-none-eabi/lib/thumb2\libc.a(lib_a-svfprintf.o)
                                                  c:/arduino/hardware/tools/g++_arm_none_eabi/bin/../lib/gcc/arm-none-eabi/4.4.1/../../../../arm-none-eabi/lib/thumb2\libc.a(lib_a-strtod.o)
__aeabi_dcmpge                                    c:/arduino/hardware/tools/g++_arm_none_eabi/bin/../lib/gcc/arm-none-eabi/4.4.1/thumb2\libgcc.a(_arm_cmpdf2.o)
                                                  c:/arduino/hardware/tools/g++_arm_none_eabi/bin/../lib/gcc/arm-none-eabi/4.4.1/../../../../arm-none-eabi/lib/thumb2\libc.a(lib_a-dtoa.o)
__aeabi_dcmpgt                                    c:/arduino/hardware/tools/g++_arm_none_eabi/bin/../lib/gcc/arm-none-eabi/4.4.1/thumb2\libgcc.a(_arm_cmpdf2.o)
                                                  c:/arduino/hardware/tools/g++_arm_none_eabi/bin/../lib/gcc/arm-none-eabi/4.4.1/../../../../arm-none-eabi/lib/thumb2\libc.a(lib_a-dtoa.o)
                                                  c:/arduino/hardware/tools/g++_arm_none_eabi/bin/../lib/gcc/arm-none-eabi/4.4.1/../../../../arm-none-eabi/lib/thumb2\libc.a(lib_a-strtod.o)
                                                  C:/Users/jon_000/Git/ALFRED_TEST/Release/arduino.ar(Print.cpp.o)
__aeabi_dcmple                                    c:/arduino/hardware/tools/g++_arm_none_eabi/bin/../lib/gcc/arm-none-eabi/4.4.1/thumb2\libgcc.a(_arm_cmpdf2.o)
                                                  c:/arduino/hardware/tools/g++_arm_none_eabi/bin/../lib/gcc/arm-none-eabi/4.4.1/../../../../arm-none-eabi/lib/thumb2\libc.a(lib_a-strtod.o)
                                                  ./Libraries/DueTimer/DueTimer.cpp.o
__aeabi_dcmplt                                    c:/arduino/hardware/tools/g++_arm_none_eabi/bin/../lib/gcc/arm-none-eabi/4.4.1/thumb2\libgcc.a(_arm_cmpdf2.o)
                                                  c:/arduino/hardware/tools/g++_arm_none_eabi/bin/../lib/gcc/arm-none-eabi/4.4.1/../../../../arm-none-eabi/lib/thumb2\libc.a(lib_a-dtoa.o)
                                                  c:/arduino/hardware/tools/g++_arm_none_eabi/bin/../lib/gcc/arm-none-eabi/4.4.1/../../../../arm-none-eabi/lib/thumb2\libc.a(lib_a-svfprintf.o)
                                                  c:/arduino/hardware/tools/g++_arm_none_eabi/bin/../lib/gcc/arm-none-eabi/4.4.1/../../../../arm-none-eabi/lib/thumb2\libc.a(lib_a-strtod.o)
                                                  C:/Users/jon_000/Git/ALFRED_TEST/Release/arduino.ar(Print.cpp.o)
__aeabi_ddiv                                      c:/arduino/hardware/tools/g++_arm_none_eabi/bin/../lib/gcc/arm-none-eabi/4.4.1/thumb2\libgcc.a(_arm_muldivdf3.o)
                                                  c:/arduino/hardware/tools/g++_arm_none_eabi/bin/../lib/gcc/arm-none-eabi/4.4.1/../../../../arm-none-eabi/lib/thumb2\libc.a(lib_a-mprec.o)
                                                  c:/arduino/hardware/tools/g++_arm_none_eabi/bin/../lib/gcc/arm-none-eabi/4.4.1/../../../../arm-none-eabi/lib/thumb2\libc.a(lib_a-dtoa.o)
                                                  c:/arduino/hardware/tools/g++_arm_none_eabi/bin/../lib/gcc/arm-none-eabi/4.4.1/../../../../arm-none-eabi/lib/thumb2\libc.a(lib_a-strtod.o)
                                                  C:/Users/jon_000/Git/ALFRED_TEST/Release/arduino.ar(Print.cpp.o)
                                                  ./Libraries/DueTimer/DueTimer.cpp.o
__aeabi_dmul                                      c:/arduino/hardware/tools/g++_arm_none_eabi/bin/../lib/gcc/arm-none-eabi/4.4.1/thumb2\libgcc.a(_arm_muldivdf3.o)
                                                  c:/arduino/hardware/tools/g++_arm_none_eabi/bin/../lib/gcc/arm-none-eabi/4.4.1/../../../../arm-none-eabi/lib/thumb2\libc.a(lib_a-mprec.o)
                                                  c:/arduino/hardware/tools/g++_arm_none_eabi/bin/../lib/gcc/arm-none-eabi/4.4.1/../../../../arm-none-eabi/lib/thumb2\libc.a(lib_a-dtoa.o)
                                                  c:/arduino/hardware/tools/g++_arm_none_eabi/bin/../lib/gcc/arm-none-eabi/4.4.1/../../../../arm-none-eabi/lib/thumb2\libc.a(lib_a-strtod.o)
                                                  C:/Users/jon_000/Git/ALFRED_TEST/Release/arduino.ar(Stream.cpp.o)
                                                  C:/Users/jon_000/Git/ALFRED_TEST/Release/arduino.ar(Print.cpp.o)
                                                  ./Libraries/DueTimer/DueTimer.cpp.o
__aeabi_drsub                                     c:/arduino/hardware/tools/g++_arm_none_eabi/bin/../lib/gcc/arm-none-eabi/4.4.1/thumb2\libgcc.a(_arm_addsubdf3.o)
__aeabi_dsub                                      c:/arduino/hardware/tools/g++_arm_none_eabi/bin/../lib/gcc/arm-none-eabi/4.4.1/thumb2\libgcc.a(_arm_addsubdf3.o)
                                                  c:/arduino/hardware/tools/g++_arm_none_eabi/bin/../lib/gcc/arm-none-eabi/4.4.1/../../../../arm-none-eabi/lib/thumb2\libc.a(lib_a-dtoa.o)
                                                  c:/arduino/hardware/tools/g++_arm_none_eabi/bin/../lib/gcc/arm-none-eabi/4.4.1/../../../../arm-none-eabi/lib/thumb2\libc.a(lib_a-strtod.o)
                                                  C:/Users/jon_000/Git/ALFRED_TEST/Release/arduino.ar(Print.cpp.o)
                                                  ./Libraries/DueTimer/DueTimer.cpp.o
__aeabi_f2d                                       c:/arduino/hardware/tools/g++_arm_none_eabi/bin/../lib/gcc/arm-none-eabi/4.4.1/thumb2\libgcc.a(_arm_addsubdf3.o)
                                                  C:/Users/jon_000/Git/ALFRED_TEST/Release/arduino.ar(WString.cpp.o)
                                                  C:/Users/jon_000/Git/ALFRED_TEST/Release/arduino.ar(Stream.cpp.o)
                                                  ./Libraries/DueTimer/DueTimer.cpp.o
__aeabi_fadd                                      c:/arduino/hardware/tools/g++_arm_none_eabi/bin/../lib/gcc/arm-none-eabi/4.4.1/thumb2\libgcc.a(_arm_addsubsf3.o)
__aeabi_fcmpeq                                    c:/arduino/hardware/tools/g++_arm_none_eabi/bin/../lib/gcc/arm-none-eabi/4.4.1/thumb2\libgcc.a(_arm_cmpsf2.o)
                                                  c:/arduino/hardware/tools/g++_arm_none_eabi/bin/../lib/gcc/arm-none-eabi/4.4.1/../../../../arm-none-eabi/lib/thumb2\libc.a(lib_a-strtod.o)
__aeabi_fcmpge                                    c:/arduino/hardware/tools/g++_arm_none_eabi/bin/../lib/gcc/arm-none-eabi/4.4.1/thumb2\libgcc.a(_arm_cmpsf2.o)
                                                  ./Libraries/DueTimer/DueTimer.cpp.o
__aeabi_fcmpgt                                    c:/arduino/hardware/tools/g++_arm_none_eabi/bin/../lib/gcc/arm-none-eabi/4.4.1/thumb2\libgcc.a(_arm_cmpsf2.o)
                                                  c:/arduino/hardware/tools/g++_arm_none_eabi/bin/../lib/gcc/arm-none-eabi/4.4.1/../../../../arm-none-eabi/lib/thumb2\libc.a(lib_a-strtod.o)
                                                  ./Libraries/DueTimer/DueTimer.cpp.o
__aeabi_fcmple                                    c:/arduino/hardware/tools/g++_arm_none_eabi/bin/../lib/gcc/arm-none-eabi/4.4.1/thumb2\libgcc.a(_arm_cmpsf2.o)
__aeabi_fcmplt                                    c:/arduino/hardware/tools/g++_arm_none_eabi/bin/../lib/gcc/arm-none-eabi/4.4.1/thumb2\libgcc.a(_arm_cmpsf2.o)
                                                  c:/arduino/hardware/tools/g++_arm_none_eabi/bin/../lib/gcc/arm-none-eabi/4.4.1/../../../../arm-none-eabi/lib/thumb2\libc.a(lib_a-strtod.o)
                                                  ./Libraries/DueTimer/DueTimer.cpp.o
__aeabi_fdiv                                      c:/arduino/hardware/tools/g++_arm_none_eabi/bin/../lib/gcc/arm-none-eabi/4.4.1/thumb2\libgcc.a(_arm_muldivsf3.o)
__aeabi_fmul                                      c:/arduino/hardware/tools/g++_arm_none_eabi/bin/../lib/gcc/arm-none-eabi/4.4.1/thumb2\libgcc.a(_arm_muldivsf3.o)
                                                  C:/Users/jon_000/Git/ALFRED_TEST/Release/arduino.ar(Stream.cpp.o)
__aeabi_frsub                                     c:/arduino/hardware/tools/g++_arm_none_eabi/bin/../lib/gcc/arm-none-eabi/4.4.1/thumb2\libgcc.a(_arm_addsubsf3.o)
__aeabi_fsub                                      c:/arduino/hardware/tools/g++_arm_none_eabi/bin/../lib/gcc/arm-none-eabi/4.4.1/thumb2\libgcc.a(_arm_addsubsf3.o)
                                                  ./Libraries/DueTimer/DueTimer.cpp.o
__aeabi_i2d                                       c:/arduino/hardware/tools/g++_arm_none_eabi/bin/../lib/gcc/arm-none-eabi/4.4.1/thumb2\libgcc.a(_arm_addsubdf3.o)
                                                  c:/arduino/hardware/tools/g++_arm_none_eabi/bin/../lib/gcc/arm-none-eabi/4.4.1/../../../../arm-none-eabi/lib/thumb2\libc.a(lib_a-dtoa.o)
                                                  c:/arduino/hardware/tools/g++_arm_none_eabi/bin/../lib/gcc/arm-none-eabi/4.4.1/../../../../arm-none-eabi/lib/thumb2\libc.a(lib_a-strtod.o)
                                                  C:/Users/jon_000/Git/ALFRED_TEST/Release/arduino.ar(Print.cpp.o)
                                                  ./Libraries/DueTimer/DueTimer.cpp.o
__aeabi_i2f                                       c:/arduino/hardware/tools/g++_arm_none_eabi/bin/../lib/gcc/arm-none-eabi/4.4.1/thumb2\libgcc.a(_arm_addsubsf3.o)
                                                  C:/Users/jon_000/Git/ALFRED_TEST/Release/arduino.ar(Stream.cpp.o)
                                                  ./Libraries/DueTimer/DueTimer.cpp.o
__aeabi_idiv0                                     c:/arduino/hardware/tools/g++_arm_none_eabi/bin/../lib/gcc/arm-none-eabi/4.4.1/thumb2\libgcc.a(_dvmd_tls.o)
                                                  c:/arduino/hardware/tools/g++_arm_none_eabi/bin/../lib/gcc/arm-none-eabi/4.4.1/thumb2\libgcc.a(_udivsi3.o)
__aeabi_l2d                                       c:/arduino/hardware/tools/g++_arm_none_eabi/bin/../lib/gcc/arm-none-eabi/4.4.1/thumb2\libgcc.a(_arm_addsubdf3.o)
__aeabi_l2f                                       c:/arduino/hardware/tools/g++_arm_none_eabi/bin/../lib/gcc/arm-none-eabi/4.4.1/thumb2\libgcc.a(_arm_addsubsf3.o)
__aeabi_ldiv0                                     c:/arduino/hardware/tools/g++_arm_none_eabi/bin/../lib/gcc/arm-none-eabi/4.4.1/thumb2\libgcc.a(_dvmd_tls.o)
                                                  c:/arduino/hardware/tools/g++_arm_none_eabi/bin/../lib/gcc/arm-none-eabi/4.4.1/thumb2\libgcc.a(_aeabi_uldivmod.o)
__aeabi_ui2d                                      c:/arduino/hardware/tools/g++_arm_none_eabi/bin/../lib/gcc/arm-none-eabi/4.4.1/thumb2\libgcc.a(_arm_addsubdf3.o)
                                                  c:/arduino/hardware/tools/g++_arm_none_eabi/bin/../lib/gcc/arm-none-eabi/4.4.1/../../../../arm-none-eabi/lib/thumb2\libc.a(lib_a-dtoa.o)
                                                  c:/arduino/hardware/tools/g++_arm_none_eabi/bin/../lib/gcc/arm-none-eabi/4.4.1/../../../../arm-none-eabi/lib/thumb2\libc.a(lib_a-strtod.o)
                                                  C:/Users/jon_000/Git/ALFRED_TEST/Release/arduino.ar(Print.cpp.o)
__aeabi_ui2f                                      c:/arduino/hardware/tools/g++_arm_none_eabi/bin/../lib/gcc/arm-none-eabi/4.4.1/thumb2\libgcc.a(_arm_addsubsf3.o)
                                                  ./Libraries/DueTimer/DueTimer.cpp.o
__aeabi_uidiv                                     c:/arduino/hardware/tools/g++_arm_none_eabi/bin/../lib/gcc/arm-none-eabi/4.4.1/thumb2\libgcc.a(_udivsi3.o)
                                                  c:/arduino/hardware/tools/g++_arm_none_eabi/bin/../lib/gcc/arm-none-eabi/4.4.1/thumb2\libgcc.a(_udivdi3.o)
                                                  c:/arduino/hardware/tools/g++_arm_none_eabi/bin/../lib/gcc/arm-none-eabi/4.4.1/thumb2\libgcc.a(_divdi3.o)
                                                  c:/arduino/hardware/tools/g++_arm_none_eabi/bin/../lib/gcc/arm-none-eabi/4.4.1/../../../../arm-none-eabi/lib/thumb2\libc.a(lib_a-dtoa.o)
                                                  c:/arduino/hardware/tools/g++_arm_none_eabi/bin/../lib/gcc/arm-none-eabi/4.4.1/../../../../arm-none-eabi/lib/thumb2\libc.a(lib_a-strtol.o)
__aeabi_uidivmod                                  c:/arduino/hardware/tools/g++_arm_none_eabi/bin/../lib/gcc/arm-none-eabi/4.4.1/thumb2\libgcc.a(_udivsi3.o)
                                                  c:/arduino/hardware/tools/g++_arm_none_eabi/bin/../lib/gcc/arm-none-eabi/4.4.1/thumb2\libgcc.a(_udivdi3.o)
                                                  c:/arduino/hardware/tools/g++_arm_none_eabi/bin/../lib/gcc/arm-none-eabi/4.4.1/thumb2\libgcc.a(_divdi3.o)
                                                  c:/arduino/hardware/tools/g++_arm_none_eabi/bin/../lib/gcc/arm-none-eabi/4.4.1/../../../../arm-none-eabi/lib/thumb2\libc.a(lib_a-strtol.o)
__aeabi_ul2d                                      c:/arduino/hardware/tools/g++_arm_none_eabi/bin/../lib/gcc/arm-none-eabi/4.4.1/thumb2\libgcc.a(_arm_addsubdf3.o)
__aeabi_ul2f                                      c:/arduino/hardware/tools/g++_arm_none_eabi/bin/../lib/gcc/arm-none-eabi/4.4.1/thumb2\libgcc.a(_arm_addsubsf3.o)
__aeabi_uldivmod                                  c:/arduino/hardware/tools/g++_arm_none_eabi/bin/../lib/gcc/arm-none-eabi/4.4.1/thumb2\libgcc.a(_aeabi_uldivmod.o)
                                                  c:/arduino/hardware/tools/g++_arm_none_eabi/bin/../lib/gcc/arm-none-eabi/4.4.1/../../../../arm-none-eabi/lib/thumb2\libc.a(lib_a-vfiprintf.o)
                                                  c:/arduino/hardware/tools/g++_arm_none_eabi/bin/../lib/gcc/arm-none-eabi/4.4.1/../../../../arm-none-eabi/lib/thumb2\libc.a(lib_a-svfprintf.o)
__any_on                                          c:/arduino/hardware/tools/g++_arm_none_eabi/bin/../lib/gcc/arm-none-eabi/4.4.1/../../../../arm-none-eabi/lib/thumb2\libc.a(lib_a-mprec.o)
                                                  c:/arduino/hardware/tools/g++_arm_none_eabi/bin/../lib/gcc/arm-none-eabi/4.4.1/../../../../arm-none-eabi/lib/thumb2\libc.a(lib_a-gdtoa-gethex.o)
__assert                                          c:/arduino/hardware/tools/g++_arm_none_eabi/bin/../lib/gcc/arm-none-eabi/4.4.1/../../../../arm-none-eabi/lib/thumb2\libc.a(lib_a-assert.o)
__assert_func                                     c:/arduino/hardware/tools/g++_arm_none_eabi/bin/../lib/gcc/arm-none-eabi/4.4.1/../../../../arm-none-eabi/lib/thumb2\libc.a(lib_a-assert.o)
                                                  C:/Arduino/hardware/arduino/sam/variants/arduino_due_x/libsam_sam3x8e_gcc_rel.a(tc.o)
                                                  C:/Arduino/hardware/arduino/sam/variants/arduino_due_x/libsam_sam3x8e_gcc_rel.a(pwmc.o)
__b2d                                             c:/arduino/hardware/tools/g++_arm_none_eabi/bin/../lib/gcc/arm-none-eabi/4.4.1/../../../../arm-none-eabi/lib/thumb2\libc.a(lib_a-mprec.o)
__cmpdf2                                          c:/arduino/hardware/tools/g++_arm_none_eabi/bin/../lib/gcc/arm-none-eabi/4.4.1/thumb2\libgcc.a(_arm_cmpdf2.o)
__cmpsf2                                          c:/arduino/hardware/tools/g++_arm_none_eabi/bin/../lib/gcc/arm-none-eabi/4.4.1/thumb2\libgcc.a(_arm_cmpsf2.o)
__copybits                                        c:/arduino/hardware/tools/g++_arm_none_eabi/bin/../lib/gcc/arm-none-eabi/4.4.1/../../../../arm-none-eabi/lib/thumb2\libc.a(lib_a-mprec.o)
                                                  c:/arduino/hardware/tools/g++_arm_none_eabi/bin/../lib/gcc/arm-none-eabi/4.4.1/../../../../arm-none-eabi/lib/thumb2\libc.a(lib_a-strtod.o)
__ctype_ptr                                       c:/arduino/hardware/tools/g++_arm_none_eabi/bin/../lib/gcc/arm-none-eabi/4.4.1/../../../../arm-none-eabi/lib/thumb2\libc.a(lib_a-ctype_.o)
__ctype_ptr__                                     c:/arduino/hardware/tools/g++_arm_none_eabi/bin/../lib/gcc/arm-none-eabi/4.4.1/../../../../arm-none-eabi/lib/thumb2\libc.a(lib_a-ctype_.o)
                                                  c:/arduino/hardware/tools/g++_arm_none_eabi/bin/../lib/gcc/arm-none-eabi/4.4.1/../../../../arm-none-eabi/lib/thumb2\libc.a(lib_a-toupper.o)
                                                  c:/arduino/hardware/tools/g++_arm_none_eabi/bin/../lib/gcc/arm-none-eabi/4.4.1/../../../../arm-none-eabi/lib/thumb2\libc.a(lib_a-tolower.o)
                                                  c:/arduino/hardware/tools/g++_arm_none_eabi/bin/../lib/gcc/arm-none-eabi/4.4.1/../../../../arm-none-eabi/lib/thumb2\libc.a(lib_a-strtol.o)
                                                  c:/arduino/hardware/tools/g++_arm_none_eabi/bin/../lib/gcc/arm-none-eabi/4.4.1/../../../../arm-none-eabi/lib/thumb2\libc.a(lib_a-isspace.o)
__cxa_pure_virtual                                C:/Users/jon_000/Git/ALFRED_TEST/Release/arduino.ar(cxxabi-compat.cpp.o)
                                                  C:/Users/jon_000/Git/ALFRED_TEST/Release/arduino.ar(CDC.cpp.o)
                                                  C:/Users/jon_000/Git/ALFRED_TEST/Release/arduino.ar(USARTClass.cpp.o)
                                                  C:/Users/jon_000/Git/ALFRED_TEST/Release/arduino.ar(UARTClass.cpp.o)
                                                  C:/Users/jon_000/Git/ALFRED_TEST/Release/arduino.ar(Print.cpp.o)
__d2b                                             c:/arduino/hardware/tools/g++_arm_none_eabi/bin/../lib/gcc/arm-none-eabi/4.4.1/../../../../arm-none-eabi/lib/thumb2\libc.a(lib_a-mprec.o)
                                                  c:/arduino/hardware/tools/g++_arm_none_eabi/bin/../lib/gcc/arm-none-eabi/4.4.1/../../../../arm-none-eabi/lib/thumb2\libc.a(lib_a-dtoa.o)
                                                  c:/arduino/hardware/tools/g++_arm_none_eabi/bin/../lib/gcc/arm-none-eabi/4.4.1/../../../../arm-none-eabi/lib/thumb2\libc.a(lib_a-strtod.o)
__divdf3                                          c:/arduino/hardware/tools/g++_arm_none_eabi/bin/../lib/gcc/arm-none-eabi/4.4.1/thumb2\libgcc.a(_arm_muldivdf3.o)
__divdi3                                          c:/arduino/hardware/tools/g++_arm_none_eabi/bin/../lib/gcc/arm-none-eabi/4.4.1/thumb2\libgcc.a(_divdi3.o)
                                                  c:/arduino/hardware/tools/g++_arm_none_eabi/bin/../lib/gcc/arm-none-eabi/4.4.1/thumb2\libgcc.a(bpabi.o)
__divsf3                                          c:/arduino/hardware/tools/g++_arm_none_eabi/bin/../lib/gcc/arm-none-eabi/4.4.1/thumb2\libgcc.a(_arm_muldivsf3.o)
__dso_handle                                      c:/arduino/hardware/tools/g++_arm_none_eabi/bin/../lib/gcc/arm-none-eabi/4.4.1/thumb2/crtbegin.o
__eqdf2                                           c:/arduino/hardware/tools/g++_arm_none_eabi/bin/../lib/gcc/arm-none-eabi/4.4.1/thumb2\libgcc.a(_arm_cmpdf2.o)
__eqsf2                                           c:/arduino/hardware/tools/g++_arm_none_eabi/bin/../lib/gcc/arm-none-eabi/4.4.1/thumb2\libgcc.a(_arm_cmpsf2.o)
__extendsfdf2                                     c:/arduino/hardware/tools/g++_arm_none_eabi/bin/../lib/gcc/arm-none-eabi/4.4.1/thumb2\libgcc.a(_arm_addsubdf3.o)
__fixdfsi                                         c:/arduino/hardware/tools/g++_arm_none_eabi/bin/../lib/gcc/arm-none-eabi/4.4.1/thumb2\libgcc.a(_arm_fixdfsi.o)
__fixunsdfsi                                      c:/arduino/hardware/tools/g++_arm_none_eabi/bin/../lib/gcc/arm-none-eabi/4.4.1/thumb2\libgcc.a(_arm_fixunsdfsi.o)
__floatdidf                                       c:/arduino/hardware/tools/g++_arm_none_eabi/bin/../lib/gcc/arm-none-eabi/4.4.1/thumb2\libgcc.a(_arm_addsubdf3.o)
__floatdisf                                       c:/arduino/hardware/tools/g++_arm_none_eabi/bin/../lib/gcc/arm-none-eabi/4.4.1/thumb2\libgcc.a(_arm_addsubsf3.o)
__floatsidf                                       c:/arduino/hardware/tools/g++_arm_none_eabi/bin/../lib/gcc/arm-none-eabi/4.4.1/thumb2\libgcc.a(_arm_addsubdf3.o)
__floatsisf                                       c:/arduino/hardware/tools/g++_arm_none_eabi/bin/../lib/gcc/arm-none-eabi/4.4.1/thumb2\libgcc.a(_arm_addsubsf3.o)
__floatundidf                                     c:/arduino/hardware/tools/g++_arm_none_eabi/bin/../lib/gcc/arm-none-eabi/4.4.1/thumb2\libgcc.a(_arm_addsubdf3.o)
__floatundisf                                     c:/arduino/hardware/tools/g++_arm_none_eabi/bin/../lib/gcc/arm-none-eabi/4.4.1/thumb2\libgcc.a(_arm_addsubsf3.o)
__floatunsidf                                     c:/arduino/hardware/tools/g++_arm_none_eabi/bin/../lib/gcc/arm-none-eabi/4.4.1/thumb2\libgcc.a(_arm_addsubdf3.o)
__floatunsisf                                     c:/arduino/hardware/tools/g++_arm_none_eabi/bin/../lib/gcc/arm-none-eabi/4.4.1/thumb2\libgcc.a(_arm_addsubsf3.o)
__fp_lock_all                                     c:/arduino/hardware/tools/g++_arm_none_eabi/bin/../lib/gcc/arm-none-eabi/4.4.1/../../../../arm-none-eabi/lib/thumb2\libc.a(lib_a-findfp.o)
__fp_unlock_all                                   c:/arduino/hardware/tools/g++_arm_none_eabi/bin/../lib/gcc/arm-none-eabi/4.4.1/../../../../arm-none-eabi/lib/thumb2\libc.a(lib_a-findfp.o)
__gedf2                                           c:/arduino/hardware/tools/g++_arm_none_eabi/bin/../lib/gcc/arm-none-eabi/4.4.1/thumb2\libgcc.a(_arm_cmpdf2.o)
__gesf2                                           c:/arduino/hardware/tools/g++_arm_none_eabi/bin/../lib/gcc/arm-none-eabi/4.4.1/thumb2\libgcc.a(_arm_cmpsf2.o)
__gethex                                          c:/arduino/hardware/tools/g++_arm_none_eabi/bin/../lib/gcc/arm-none-eabi/4.4.1/../../../../arm-none-eabi/lib/thumb2\libc.a(lib_a-gdtoa-gethex.o)
                                                  c:/arduino/hardware/tools/g++_arm_none_eabi/bin/../lib/gcc/arm-none-eabi/4.4.1/../../../../arm-none-eabi/lib/thumb2\libc.a(lib_a-strtod.o)
__gnu_ldivmod_helper                              c:/arduino/hardware/tools/g++_arm_none_eabi/bin/../lib/gcc/arm-none-eabi/4.4.1/thumb2\libgcc.a(bpabi.o)
__gnu_uldivmod_helper                             c:/arduino/hardware/tools/g++_arm_none_eabi/bin/../lib/gcc/arm-none-eabi/4.4.1/thumb2\libgcc.a(bpabi.o)
                                                  c:/arduino/hardware/tools/g++_arm_none_eabi/bin/../lib/gcc/arm-none-eabi/4.4.1/thumb2\libgcc.a(_aeabi_uldivmod.o)
__gtdf2                                           c:/arduino/hardware/tools/g++_arm_none_eabi/bin/../lib/gcc/arm-none-eabi/4.4.1/thumb2\libgcc.a(_arm_cmpdf2.o)
__gtsf2                                           c:/arduino/hardware/tools/g++_arm_none_eabi/bin/../lib/gcc/arm-none-eabi/4.4.1/thumb2\libgcc.a(_arm_cmpsf2.o)
__hexdig                                          c:/arduino/hardware/tools/g++_arm_none_eabi/bin/../lib/gcc/arm-none-eabi/4.4.1/../../../../arm-none-eabi/lib/thumb2\libc.a(lib_a-gdtoa-hexnan.o)
                                                  c:/arduino/hardware/tools/g++_arm_none_eabi/bin/../lib/gcc/arm-none-eabi/4.4.1/../../../../arm-none-eabi/lib/thumb2\libc.a(lib_a-gdtoa-gethex.o)
__hexdig_init                                     c:/arduino/hardware/tools/g++_arm_none_eabi/bin/../lib/gcc/arm-none-eabi/4.4.1/../../../../arm-none-eabi/lib/thumb2\libc.a(lib_a-gdtoa-gethex.o)
                                                  c:/arduino/hardware/tools/g++_arm_none_eabi/bin/../lib/gcc/arm-none-eabi/4.4.1/../../../../arm-none-eabi/lib/thumb2\libc.a(lib_a-gdtoa-hexnan.o)
__hexnan                                          c:/arduino/hardware/tools/g++_arm_none_eabi/bin/../lib/gcc/arm-none-eabi/4.4.1/../../../../arm-none-eabi/lib/thumb2\libc.a(lib_a-gdtoa-hexnan.o)
                                                  c:/arduino/hardware/tools/g++_arm_none_eabi/bin/../lib/gcc/arm-none-eabi/4.4.1/../../../../arm-none-eabi/lib/thumb2\libc.a(lib_a-strtod.o)
__hi0bits                                         c:/arduino/hardware/tools/g++_arm_none_eabi/bin/../lib/gcc/arm-none-eabi/4.4.1/../../../../arm-none-eabi/lib/thumb2\libc.a(lib_a-mprec.o)
                                                  c:/arduino/hardware/tools/g++_arm_none_eabi/bin/../lib/gcc/arm-none-eabi/4.4.1/../../../../arm-none-eabi/lib/thumb2\libc.a(lib_a-gdtoa-gethex.o)
                                                  c:/arduino/hardware/tools/g++_arm_none_eabi/bin/../lib/gcc/arm-none-eabi/4.4.1/../../../../arm-none-eabi/lib/thumb2\libc.a(lib_a-dtoa.o)
__i2b                                             c:/arduino/hardware/tools/g++_arm_none_eabi/bin/../lib/gcc/arm-none-eabi/4.4.1/../../../../arm-none-eabi/lib/thumb2\libc.a(lib_a-mprec.o)
                                                  c:/arduino/hardware/tools/g++_arm_none_eabi/bin/../lib/gcc/arm-none-eabi/4.4.1/../../../../arm-none-eabi/lib/thumb2\libc.a(lib_a-dtoa.o)
                                                  c:/arduino/hardware/tools/g++_arm_none_eabi/bin/../lib/gcc/arm-none-eabi/4.4.1/../../../../arm-none-eabi/lib/thumb2\libc.a(lib_a-strtod.o)
__init_array_end                                  c:/arduino/hardware/tools/g++_arm_none_eabi/bin/../lib/gcc/arm-none-eabi/4.4.1/../../../../arm-none-eabi/lib/thumb2\libc.a(lib_a-init.o)
__init_array_start                                c:/arduino/hardware/tools/g++_arm_none_eabi/bin/../lib/gcc/arm-none-eabi/4.4.1/../../../../arm-none-eabi/lib/thumb2\libc.a(lib_a-init.o)
__isinfd                                          c:/arduino/hardware/tools/g++_arm_none_eabi/bin/../lib/gcc/arm-none-eabi/4.4.1/../../../../arm-none-eabi/lib/thumb2\libm.a(lib_a-s_isinfd.o)
                                                  c:/arduino/hardware/tools/g++_arm_none_eabi/bin/../lib/gcc/arm-none-eabi/4.4.1/../../../../arm-none-eabi/lib/thumb2\libc.a(lib_a-svfprintf.o)
                                                  C:/Users/jon_000/Git/ALFRED_TEST/Release/arduino.ar(Print.cpp.o)
__isnand                                          c:/arduino/hardware/tools/g++_arm_none_eabi/bin/../lib/gcc/arm-none-eabi/4.4.1/../../../../arm-none-eabi/lib/thumb2\libm.a(lib_a-s_isnand.o)
                                                  c:/arduino/hardware/tools/g++_arm_none_eabi/bin/../lib/gcc/arm-none-eabi/4.4.1/../../../../arm-none-eabi/lib/thumb2\libc.a(lib_a-svfprintf.o)
                                                  C:/Users/jon_000/Git/ALFRED_TEST/Release/arduino.ar(Print.cpp.o)
__lc_ctype                                        c:/arduino/hardware/tools/g++_arm_none_eabi/bin/../lib/gcc/arm-none-eabi/4.4.1/../../../../arm-none-eabi/lib/thumb2\libc.a(lib_a-locale.o)
__ledf2                                           c:/arduino/hardware/tools/g++_arm_none_eabi/bin/../lib/gcc/arm-none-eabi/4.4.1/thumb2\libgcc.a(_arm_cmpdf2.o)
__lesf2                                           c:/arduino/hardware/tools/g++_arm_none_eabi/bin/../lib/gcc/arm-none-eabi/4.4.1/thumb2\libgcc.a(_arm_cmpsf2.o)
__libc_init_array                                 c:/arduino/hardware/tools/g++_arm_none_eabi/bin/../lib/gcc/arm-none-eabi/4.4.1/../../../../arm-none-eabi/lib/thumb2\libc.a(lib_a-init.o)
                                                  C:/Users/jon_000/Git/ALFRED_TEST/Release/arduino.ar(variant.cpp.o)
__lo0bits                                         c:/arduino/hardware/tools/g++_arm_none_eabi/bin/../lib/gcc/arm-none-eabi/4.4.1/../../../../arm-none-eabi/lib/thumb2\libc.a(lib_a-mprec.o)
__locale_charset                                  c:/arduino/hardware/tools/g++_arm_none_eabi/bin/../lib/gcc/arm-none-eabi/4.4.1/../../../../arm-none-eabi/lib/thumb2\libc.a(lib_a-locale.o)
__lshift                                          c:/arduino/hardware/tools/g++_arm_none_eabi/bin/../lib/gcc/arm-none-eabi/4.4.1/../../../../arm-none-eabi/lib/thumb2\libc.a(lib_a-mprec.o)
                                                  c:/arduino/hardware/tools/g++_arm_none_eabi/bin/../lib/gcc/arm-none-eabi/4.4.1/../../../../arm-none-eabi/lib/thumb2\libc.a(lib_a-gdtoa-gethex.o)
                                                  c:/arduino/hardware/tools/g++_arm_none_eabi/bin/../lib/gcc/arm-none-eabi/4.4.1/../../../../arm-none-eabi/lib/thumb2\libc.a(lib_a-dtoa.o)
                                                  c:/arduino/hardware/tools/g++_arm_none_eabi/bin/../lib/gcc/arm-none-eabi/4.4.1/../../../../arm-none-eabi/lib/thumb2\libc.a(lib_a-strtod.o)
__ltdf2                                           c:/arduino/hardware/tools/g++_arm_none_eabi/bin/../lib/gcc/arm-none-eabi/4.4.1/thumb2\libgcc.a(_arm_cmpdf2.o)
__ltsf2                                           c:/arduino/hardware/tools/g++_arm_none_eabi/bin/../lib/gcc/arm-none-eabi/4.4.1/thumb2\libgcc.a(_arm_cmpsf2.o)
__malloc_av_                                      c:/arduino/hardware/tools/g++_arm_none_eabi/bin/../lib/gcc/arm-none-eabi/4.4.1/../../../../arm-none-eabi/lib/thumb2\libc.a(lib_a-mallocr.o)
                                                  c:/arduino/hardware/tools/g++_arm_none_eabi/bin/../lib/gcc/arm-none-eabi/4.4.1/../../../../arm-none-eabi/lib/thumb2\libc.a(lib_a-freer.o)
                                                  c:/arduino/hardware/tools/g++_arm_none_eabi/bin/../lib/gcc/arm-none-eabi/4.4.1/../../../../arm-none-eabi/lib/thumb2\libc.a(lib_a-reallocr.o)
__malloc_current_mallinfo                         c:/arduino/hardware/tools/g++_arm_none_eabi/bin/../lib/gcc/arm-none-eabi/4.4.1/../../../../arm-none-eabi/lib/thumb2\libc.a(lib_a-mallocr.o)
                                                  c:/arduino/hardware/tools/g++_arm_none_eabi/bin/../lib/gcc/arm-none-eabi/4.4.1/../../../../arm-none-eabi/lib/thumb2\libc.a(lib_a-freer.o)
__malloc_lock                                     c:/arduino/hardware/tools/g++_arm_none_eabi/bin/../lib/gcc/arm-none-eabi/4.4.1/../../../../arm-none-eabi/lib/thumb2\libc.a(lib_a-mlock.o)
                                                  c:/arduino/hardware/tools/g++_arm_none_eabi/bin/../lib/gcc/arm-none-eabi/4.4.1/../../../../arm-none-eabi/lib/thumb2\libc.a(lib_a-freer.o)
                                                  c:/arduino/hardware/tools/g++_arm_none_eabi/bin/../lib/gcc/arm-none-eabi/4.4.1/../../../../arm-none-eabi/lib/thumb2\libc.a(lib_a-reallocr.o)
                                                  c:/arduino/hardware/tools/g++_arm_none_eabi/bin/../lib/gcc/arm-none-eabi/4.4.1/../../../../arm-none-eabi/lib/thumb2\libc.a(lib_a-mallocr.o)
__malloc_max_sbrked_mem                           c:/arduino/hardware/tools/g++_arm_none_eabi/bin/../lib/gcc/arm-none-eabi/4.4.1/../../../../arm-none-eabi/lib/thumb2\libc.a(lib_a-mallocr.o)
__malloc_max_total_mem                            c:/arduino/hardware/tools/g++_arm_none_eabi/bin/../lib/gcc/arm-none-eabi/4.4.1/../../../../arm-none-eabi/lib/thumb2\libc.a(lib_a-mallocr.o)
__malloc_sbrk_base                                c:/arduino/hardware/tools/g++_arm_none_eabi/bin/../lib/gcc/arm-none-eabi/4.4.1/../../../../arm-none-eabi/lib/thumb2\libc.a(lib_a-mallocr.o)
                                                  c:/arduino/hardware/tools/g++_arm_none_eabi/bin/../lib/gcc/arm-none-eabi/4.4.1/../../../../arm-none-eabi/lib/thumb2\libc.a(lib_a-freer.o)
__malloc_top_pad                                  c:/arduino/hardware/tools/g++_arm_none_eabi/bin/../lib/gcc/arm-none-eabi/4.4.1/../../../../arm-none-eabi/lib/thumb2\libc.a(lib_a-mallocr.o)
                                                  c:/arduino/hardware/tools/g++_arm_none_eabi/bin/../lib/gcc/arm-none-eabi/4.4.1/../../../../arm-none-eabi/lib/thumb2\libc.a(lib_a-freer.o)
__malloc_trim_threshold                           c:/arduino/hardware/tools/g++_arm_none_eabi/bin/../lib/gcc/arm-none-eabi/4.4.1/../../../../arm-none-eabi/lib/thumb2\libc.a(lib_a-mallocr.o)
                                                  c:/arduino/hardware/tools/g++_arm_none_eabi/bin/../lib/gcc/arm-none-eabi/4.4.1/../../../../arm-none-eabi/lib/thumb2\libc.a(lib_a-freer.o)
__malloc_unlock                                   c:/arduino/hardware/tools/g++_arm_none_eabi/bin/../lib/gcc/arm-none-eabi/4.4.1/../../../../arm-none-eabi/lib/thumb2\libc.a(lib_a-mlock.o)
                                                  c:/arduino/hardware/tools/g++_arm_none_eabi/bin/../lib/gcc/arm-none-eabi/4.4.1/../../../../arm-none-eabi/lib/thumb2\libc.a(lib_a-freer.o)
                                                  c:/arduino/hardware/tools/g++_arm_none_eabi/bin/../lib/gcc/arm-none-eabi/4.4.1/../../../../arm-none-eabi/lib/thumb2\libc.a(lib_a-reallocr.o)
                                                  c:/arduino/hardware/tools/g++_arm_none_eabi/bin/../lib/gcc/arm-none-eabi/4.4.1/../../../../arm-none-eabi/lib/thumb2\libc.a(lib_a-mallocr.o)
__mb_cur_max                                      c:/arduino/hardware/tools/g++_arm_none_eabi/bin/../lib/gcc/arm-none-eabi/4.4.1/../../../../arm-none-eabi/lib/thumb2\libc.a(lib_a-locale.o)
__mcmp                                            c:/arduino/hardware/tools/g++_arm_none_eabi/bin/../lib/gcc/arm-none-eabi/4.4.1/../../../../arm-none-eabi/lib/thumb2\libc.a(lib_a-mprec.o)
                                                  c:/arduino/hardware/tools/g++_arm_none_eabi/bin/../lib/gcc/arm-none-eabi/4.4.1/../../../../arm-none-eabi/lib/thumb2\libc.a(lib_a-dtoa.o)
                                                  c:/arduino/hardware/tools/g++_arm_none_eabi/bin/../lib/gcc/arm-none-eabi/4.4.1/../../../../arm-none-eabi/lib/thumb2\libc.a(lib_a-strtod.o)
__mdiff                                           c:/arduino/hardware/tools/g++_arm_none_eabi/bin/../lib/gcc/arm-none-eabi/4.4.1/../../../../arm-none-eabi/lib/thumb2\libc.a(lib_a-mprec.o)
                                                  c:/arduino/hardware/tools/g++_arm_none_eabi/bin/../lib/gcc/arm-none-eabi/4.4.1/../../../../arm-none-eabi/lib/thumb2\libc.a(lib_a-dtoa.o)
                                                  c:/arduino/hardware/tools/g++_arm_none_eabi/bin/../lib/gcc/arm-none-eabi/4.4.1/../../../../arm-none-eabi/lib/thumb2\libc.a(lib_a-strtod.o)
__mlocale_changed                                 c:/arduino/hardware/tools/g++_arm_none_eabi/bin/../lib/gcc/arm-none-eabi/4.4.1/../../../../arm-none-eabi/lib/thumb2\libc.a(lib_a-locale.o)
__mprec_bigtens                                   c:/arduino/hardware/tools/g++_arm_none_eabi/bin/../lib/gcc/arm-none-eabi/4.4.1/../../../../arm-none-eabi/lib/thumb2\libc.a(lib_a-mprec.o)
                                                  c:/arduino/hardware/tools/g++_arm_none_eabi/bin/../lib/gcc/arm-none-eabi/4.4.1/../../../../arm-none-eabi/lib/thumb2\libc.a(lib_a-dtoa.o)
                                                  c:/arduino/hardware/tools/g++_arm_none_eabi/bin/../lib/gcc/arm-none-eabi/4.4.1/../../../../arm-none-eabi/lib/thumb2\libc.a(lib_a-strtod.o)
__mprec_tens                                      c:/arduino/hardware/tools/g++_arm_none_eabi/bin/../lib/gcc/arm-none-eabi/4.4.1/../../../../arm-none-eabi/lib/thumb2\libc.a(lib_a-mprec.o)
                                                  c:/arduino/hardware/tools/g++_arm_none_eabi/bin/../lib/gcc/arm-none-eabi/4.4.1/../../../../arm-none-eabi/lib/thumb2\libc.a(lib_a-dtoa.o)
                                                  c:/arduino/hardware/tools/g++_arm_none_eabi/bin/../lib/gcc/arm-none-eabi/4.4.1/../../../../arm-none-eabi/lib/thumb2\libc.a(lib_a-strtod.o)
__mprec_tinytens                                  c:/arduino/hardware/tools/g++_arm_none_eabi/bin/../lib/gcc/arm-none-eabi/4.4.1/../../../../arm-none-eabi/lib/thumb2\libc.a(lib_a-mprec.o)
__muldf3                                          c:/arduino/hardware/tools/g++_arm_none_eabi/bin/../lib/gcc/arm-none-eabi/4.4.1/thumb2\libgcc.a(_arm_muldivdf3.o)
__mulsf3                                          c:/arduino/hardware/tools/g++_arm_none_eabi/bin/../lib/gcc/arm-none-eabi/4.4.1/thumb2\libgcc.a(_arm_muldivsf3.o)
__multadd                                         c:/arduino/hardware/tools/g++_arm_none_eabi/bin/../lib/gcc/arm-none-eabi/4.4.1/../../../../arm-none-eabi/lib/thumb2\libc.a(lib_a-mprec.o)
                                                  c:/arduino/hardware/tools/g++_arm_none_eabi/bin/../lib/gcc/arm-none-eabi/4.4.1/../../../../arm-none-eabi/lib/thumb2\libc.a(lib_a-dtoa.o)
__multiply                                        c:/arduino/hardware/tools/g++_arm_none_eabi/bin/../lib/gcc/arm-none-eabi/4.4.1/../../../../arm-none-eabi/lib/thumb2\libc.a(lib_a-mprec.o)
                                                  c:/arduino/hardware/tools/g++_arm_none_eabi/bin/../lib/gcc/arm-none-eabi/4.4.1/../../../../arm-none-eabi/lib/thumb2\libc.a(lib_a-dtoa.o)
                                                  c:/arduino/hardware/tools/g++_arm_none_eabi/bin/../lib/gcc/arm-none-eabi/4.4.1/../../../../arm-none-eabi/lib/thumb2\libc.a(lib_a-strtod.o)
__nedf2                                           c:/arduino/hardware/tools/g++_arm_none_eabi/bin/../lib/gcc/arm-none-eabi/4.4.1/thumb2\libgcc.a(_arm_cmpdf2.o)
__nesf2                                           c:/arduino/hardware/tools/g++_arm_none_eabi/bin/../lib/gcc/arm-none-eabi/4.4.1/thumb2\libgcc.a(_arm_cmpsf2.o)
__nlocale_changed                                 c:/arduino/hardware/tools/g++_arm_none_eabi/bin/../lib/gcc/arm-none-eabi/4.4.1/../../../../arm-none-eabi/lib/thumb2\libc.a(lib_a-locale.o)
__pow5mult                                        c:/arduino/hardware/tools/g++_arm_none_eabi/bin/../lib/gcc/arm-none-eabi/4.4.1/../../../../arm-none-eabi/lib/thumb2\libc.a(lib_a-mprec.o)
                                                  c:/arduino/hardware/tools/g++_arm_none_eabi/bin/../lib/gcc/arm-none-eabi/4.4.1/../../../../arm-none-eabi/lib/thumb2\libc.a(lib_a-dtoa.o)
                                                  c:/arduino/hardware/tools/g++_arm_none_eabi/bin/../lib/gcc/arm-none-eabi/4.4.1/../../../../arm-none-eabi/lib/thumb2\libc.a(lib_a-strtod.o)
__preinit_array_end                               c:/arduino/hardware/tools/g++_arm_none_eabi/bin/../lib/gcc/arm-none-eabi/4.4.1/../../../../arm-none-eabi/lib/thumb2\libc.a(lib_a-init.o)
__preinit_array_start                             c:/arduino/hardware/tools/g++_arm_none_eabi/bin/../lib/gcc/arm-none-eabi/4.4.1/../../../../arm-none-eabi/lib/thumb2\libc.a(lib_a-init.o)
__ratio                                           c:/arduino/hardware/tools/g++_arm_none_eabi/bin/../lib/gcc/arm-none-eabi/4.4.1/../../../../arm-none-eabi/lib/thumb2\libc.a(lib_a-mprec.o)
                                                  c:/arduino/hardware/tools/g++_arm_none_eabi/bin/../lib/gcc/arm-none-eabi/4.4.1/../../../../arm-none-eabi/lib/thumb2\libc.a(lib_a-strtod.o)
__s2b                                             c:/arduino/hardware/tools/g++_arm_none_eabi/bin/../lib/gcc/arm-none-eabi/4.4.1/../../../../arm-none-eabi/lib/thumb2\libc.a(lib_a-mprec.o)
                                                  c:/arduino/hardware/tools/g++_arm_none_eabi/bin/../lib/gcc/arm-none-eabi/4.4.1/../../../../arm-none-eabi/lib/thumb2\libc.a(lib_a-strtod.o)
__sclose                                          c:/arduino/hardware/tools/g++_arm_none_eabi/bin/../lib/gcc/arm-none-eabi/4.4.1/../../../../arm-none-eabi/lib/thumb2\libc.a(lib_a-stdio.o)
                                                  c:/arduino/hardware/tools/g++_arm_none_eabi/bin/../lib/gcc/arm-none-eabi/4.4.1/../../../../arm-none-eabi/lib/thumb2\libc.a(lib_a-findfp.o)
__sf_fake_stderr                                  c:/arduino/hardware/tools/g++_arm_none_eabi/bin/../lib/gcc/arm-none-eabi/4.4.1/../../../../arm-none-eabi/lib/thumb2\libc.a(lib_a-findfp.o)
                                                  c:/arduino/hardware/tools/g++_arm_none_eabi/bin/../lib/gcc/arm-none-eabi/4.4.1/../../../../arm-none-eabi/lib/thumb2\libc.a(lib_a-fclose.o)
                                                  c:/arduino/hardware/tools/g++_arm_none_eabi/bin/../lib/gcc/arm-none-eabi/4.4.1/../../../../arm-none-eabi/lib/thumb2\libc.a(lib_a-fflush.o)
                                                  c:/arduino/hardware/tools/g++_arm_none_eabi/bin/../lib/gcc/arm-none-eabi/4.4.1/../../../../arm-none-eabi/lib/thumb2\libc.a(lib_a-wsetup.o)
                                                  c:/arduino/hardware/tools/g++_arm_none_eabi/bin/../lib/gcc/arm-none-eabi/4.4.1/../../../../arm-none-eabi/lib/thumb2\libc.a(lib_a-vfiprintf.o)
                                                  c:/arduino/hardware/tools/g++_arm_none_eabi/bin/../lib/gcc/arm-none-eabi/4.4.1/../../../../arm-none-eabi/lib/thumb2\libc.a(lib_a-impure.o)
__sf_fake_stdin                                   c:/arduino/hardware/tools/g++_arm_none_eabi/bin/../lib/gcc/arm-none-eabi/4.4.1/../../../../arm-none-eabi/lib/thumb2\libc.a(lib_a-findfp.o)
                                                  c:/arduino/hardware/tools/g++_arm_none_eabi/bin/../lib/gcc/arm-none-eabi/4.4.1/../../../../arm-none-eabi/lib/thumb2\libc.a(lib_a-fclose.o)
                                                  c:/arduino/hardware/tools/g++_arm_none_eabi/bin/../lib/gcc/arm-none-eabi/4.4.1/../../../../arm-none-eabi/lib/thumb2\libc.a(lib_a-fflush.o)
                                                  c:/arduino/hardware/tools/g++_arm_none_eabi/bin/../lib/gcc/arm-none-eabi/4.4.1/../../../../arm-none-eabi/lib/thumb2\libc.a(lib_a-wsetup.o)
                                                  c:/arduino/hardware/tools/g++_arm_none_eabi/bin/../lib/gcc/arm-none-eabi/4.4.1/../../../../arm-none-eabi/lib/thumb2\libc.a(lib_a-vfiprintf.o)
                                                  c:/arduino/hardware/tools/g++_arm_none_eabi/bin/../lib/gcc/arm-none-eabi/4.4.1/../../../../arm-none-eabi/lib/thumb2\libc.a(lib_a-impure.o)
__sf_fake_stdout                                  c:/arduino/hardware/tools/g++_arm_none_eabi/bin/../lib/gcc/arm-none-eabi/4.4.1/../../../../arm-none-eabi/lib/thumb2\libc.a(lib_a-findfp.o)
                                                  c:/arduino/hardware/tools/g++_arm_none_eabi/bin/../lib/gcc/arm-none-eabi/4.4.1/../../../../arm-none-eabi/lib/thumb2\libc.a(lib_a-fclose.o)
                                                  c:/arduino/hardware/tools/g++_arm_none_eabi/bin/../lib/gcc/arm-none-eabi/4.4.1/../../../../arm-none-eabi/lib/thumb2\libc.a(lib_a-fflush.o)
                                                  c:/arduino/hardware/tools/g++_arm_none_eabi/bin/../lib/gcc/arm-none-eabi/4.4.1/../../../../arm-none-eabi/lib/thumb2\libc.a(lib_a-wsetup.o)
                                                  c:/arduino/hardware/tools/g++_arm_none_eabi/bin/../lib/gcc/arm-none-eabi/4.4.1/../../../../arm-none-eabi/lib/thumb2\libc.a(lib_a-vfiprintf.o)
                                                  c:/arduino/hardware/tools/g++_arm_none_eabi/bin/../lib/gcc/arm-none-eabi/4.4.1/../../../../arm-none-eabi/lib/thumb2\libc.a(lib_a-impure.o)
__sfmoreglue                                      c:/arduino/hardware/tools/g++_arm_none_eabi/bin/../lib/gcc/arm-none-eabi/4.4.1/../../../../arm-none-eabi/lib/thumb2\libc.a(lib_a-findfp.o)
__sfp                                             c:/arduino/hardware/tools/g++_arm_none_eabi/bin/../lib/gcc/arm-none-eabi/4.4.1/../../../../arm-none-eabi/lib/thumb2\libc.a(lib_a-findfp.o)
__sfp_lock_acquire                                c:/arduino/hardware/tools/g++_arm_none_eabi/bin/../lib/gcc/arm-none-eabi/4.4.1/../../../../arm-none-eabi/lib/thumb2\libc.a(lib_a-findfp.o)
                                                  c:/arduino/hardware/tools/g++_arm_none_eabi/bin/../lib/gcc/arm-none-eabi/4.4.1/../../../../arm-none-eabi/lib/thumb2\libc.a(lib_a-fclose.o)
                                                  c:/arduino/hardware/tools/g++_arm_none_eabi/bin/../lib/gcc/arm-none-eabi/4.4.1/../../../../arm-none-eabi/lib/thumb2\libc.a(lib_a-fwalk.o)
__sfp_lock_release                                c:/arduino/hardware/tools/g++_arm_none_eabi/bin/../lib/gcc/arm-none-eabi/4.4.1/../../../../arm-none-eabi/lib/thumb2\libc.a(lib_a-findfp.o)
                                                  c:/arduino/hardware/tools/g++_arm_none_eabi/bin/../lib/gcc/arm-none-eabi/4.4.1/../../../../arm-none-eabi/lib/thumb2\libc.a(lib_a-fclose.o)
                                                  c:/arduino/hardware/tools/g++_arm_none_eabi/bin/../lib/gcc/arm-none-eabi/4.4.1/../../../../arm-none-eabi/lib/thumb2\libc.a(lib_a-fwalk.o)
__sfvwrite_r                                      c:/arduino/hardware/tools/g++_arm_none_eabi/bin/../lib/gcc/arm-none-eabi/4.4.1/../../../../arm-none-eabi/lib/thumb2\libc.a(lib_a-fvwrite.o)
                                                  c:/arduino/hardware/tools/g++_arm_none_eabi/bin/../lib/gcc/arm-none-eabi/4.4.1/../../../../arm-none-eabi/lib/thumb2\libc.a(lib_a-vfiprintf.o)
__sigtramp                                        c:/arduino/hardware/tools/g++_arm_none_eabi/bin/../lib/gcc/arm-none-eabi/4.4.1/../../../../arm-none-eabi/lib/thumb2\libc.a(lib_a-signal.o)
__sigtramp_r                                      c:/arduino/hardware/tools/g++_arm_none_eabi/bin/../lib/gcc/arm-none-eabi/4.4.1/../../../../arm-none-eabi/lib/thumb2\libc.a(lib_a-signal.o)
__sinit                                           c:/arduino/hardware/tools/g++_arm_none_eabi/bin/../lib/gcc/arm-none-eabi/4.4.1/../../../../arm-none-eabi/lib/thumb2\libc.a(lib_a-findfp.o)
                                                  c:/arduino/hardware/tools/g++_arm_none_eabi/bin/../lib/gcc/arm-none-eabi/4.4.1/../../../../arm-none-eabi/lib/thumb2\libc.a(lib_a-fclose.o)
                                                  c:/arduino/hardware/tools/g++_arm_none_eabi/bin/../lib/gcc/arm-none-eabi/4.4.1/../../../../arm-none-eabi/lib/thumb2\libc.a(lib_a-fflush.o)
                                                  c:/arduino/hardware/tools/g++_arm_none_eabi/bin/../lib/gcc/arm-none-eabi/4.4.1/../../../../arm-none-eabi/lib/thumb2\libc.a(lib_a-wsetup.o)
                                                  c:/arduino/hardware/tools/g++_arm_none_eabi/bin/../lib/gcc/arm-none-eabi/4.4.1/../../../../arm-none-eabi/lib/thumb2\libc.a(lib_a-vfiprintf.o)
                                                  c:/arduino/hardware/tools/g++_arm_none_eabi/bin/../lib/gcc/arm-none-eabi/4.4.1/../../../../arm-none-eabi/lib/thumb2\libc.a(lib_a-iprintf.o)
__sinit_lock_acquire                              c:/arduino/hardware/tools/g++_arm_none_eabi/bin/../lib/gcc/arm-none-eabi/4.4.1/../../../../arm-none-eabi/lib/thumb2\libc.a(lib_a-findfp.o)
__sinit_lock_release                              c:/arduino/hardware/tools/g++_arm_none_eabi/bin/../lib/gcc/arm-none-eabi/4.4.1/../../../../arm-none-eabi/lib/thumb2\libc.a(lib_a-findfp.o)
__smakebuf_r                                      c:/arduino/hardware/tools/g++_arm_none_eabi/bin/../lib/gcc/arm-none-eabi/4.4.1/../../../../arm-none-eabi/lib/thumb2\libc.a(lib_a-makebuf.o)
                                                  c:/arduino/hardware/tools/g++_arm_none_eabi/bin/../lib/gcc/arm-none-eabi/4.4.1/../../../../arm-none-eabi/lib/thumb2\libc.a(lib_a-wsetup.o)
__sread                                           c:/arduino/hardware/tools/g++_arm_none_eabi/bin/../lib/gcc/arm-none-eabi/4.4.1/../../../../arm-none-eabi/lib/thumb2\libc.a(lib_a-stdio.o)
                                                  c:/arduino/hardware/tools/g++_arm_none_eabi/bin/../lib/gcc/arm-none-eabi/4.4.1/../../../../arm-none-eabi/lib/thumb2\libc.a(lib_a-findfp.o)
__sseek                                           c:/arduino/hardware/tools/g++_arm_none_eabi/bin/../lib/gcc/arm-none-eabi/4.4.1/../../../../arm-none-eabi/lib/thumb2\libc.a(lib_a-stdio.o)
                                                  c:/arduino/hardware/tools/g++_arm_none_eabi/bin/../lib/gcc/arm-none-eabi/4.4.1/../../../../arm-none-eabi/lib/thumb2\libc.a(lib_a-makebuf.o)
                                                  c:/arduino/hardware/tools/g++_arm_none_eabi/bin/../lib/gcc/arm-none-eabi/4.4.1/../../../../arm-none-eabi/lib/thumb2\libc.a(lib_a-findfp.o)
__subdf3                                          c:/arduino/hardware/tools/g++_arm_none_eabi/bin/../lib/gcc/arm-none-eabi/4.4.1/thumb2\libgcc.a(_arm_addsubdf3.o)
__subsf3                                          c:/arduino/hardware/tools/g++_arm_none_eabi/bin/../lib/gcc/arm-none-eabi/4.4.1/thumb2\libgcc.a(_arm_addsubsf3.o)
__swrite                                          c:/arduino/hardware/tools/g++_arm_none_eabi/bin/../lib/gcc/arm-none-eabi/4.4.1/../../../../arm-none-eabi/lib/thumb2\libc.a(lib_a-stdio.o)
                                                  c:/arduino/hardware/tools/g++_arm_none_eabi/bin/../lib/gcc/arm-none-eabi/4.4.1/../../../../arm-none-eabi/lib/thumb2\libc.a(lib_a-findfp.o)
__swsetup_r                                       c:/arduino/hardware/tools/g++_arm_none_eabi/bin/../lib/gcc/arm-none-eabi/4.4.1/../../../../arm-none-eabi/lib/thumb2\libc.a(lib_a-wsetup.o)
                                                  c:/arduino/hardware/tools/g++_arm_none_eabi/bin/../lib/gcc/arm-none-eabi/4.4.1/../../../../arm-none-eabi/lib/thumb2\libc.a(lib_a-fvwrite.o)
                                                  c:/arduino/hardware/tools/g++_arm_none_eabi/bin/../lib/gcc/arm-none-eabi/4.4.1/../../../../arm-none-eabi/lib/thumb2\libc.a(lib_a-vfiprintf.o)
__truncdfsf2                                      c:/arduino/hardware/tools/g++_arm_none_eabi/bin/../lib/gcc/arm-none-eabi/4.4.1/thumb2\libgcc.a(_arm_truncdfsf2.o)
__udivdi3                                         c:/arduino/hardware/tools/g++_arm_none_eabi/bin/../lib/gcc/arm-none-eabi/4.4.1/thumb2\libgcc.a(_udivdi3.o)
                                                  c:/arduino/hardware/tools/g++_arm_none_eabi/bin/../lib/gcc/arm-none-eabi/4.4.1/thumb2\libgcc.a(bpabi.o)
__udivsi3                                         c:/arduino/hardware/tools/g++_arm_none_eabi/bin/../lib/gcc/arm-none-eabi/4.4.1/thumb2\libgcc.a(_udivsi3.o)
__ulp                                             c:/arduino/hardware/tools/g++_arm_none_eabi/bin/../lib/gcc/arm-none-eabi/4.4.1/../../../../arm-none-eabi/lib/thumb2\libc.a(lib_a-mprec.o)
                                                  c:/arduino/hardware/tools/g++_arm_none_eabi/bin/../lib/gcc/arm-none-eabi/4.4.1/../../../../arm-none-eabi/lib/thumb2\libc.a(lib_a-strtod.o)
_asciimap                                         C:/Users/jon_000/Git/ALFRED_TEST/Release/arduino.ar(HID.cpp.o)
_atol_r                                           c:/arduino/hardware/tools/g++_arm_none_eabi/bin/../lib/gcc/arm-none-eabi/4.4.1/../../../../arm-none-eabi/lib/thumb2\libc.a(lib_a-atol.o)
_calloc_r                                         c:/arduino/hardware/tools/g++_arm_none_eabi/bin/../lib/gcc/arm-none-eabi/4.4.1/../../../../arm-none-eabi/lib/thumb2\libc.a(lib_a-callocr.o)
                                                  c:/arduino/hardware/tools/g++_arm_none_eabi/bin/../lib/gcc/arm-none-eabi/4.4.1/../../../../arm-none-eabi/lib/thumb2\libc.a(lib_a-mprec.o)
_cdcComposite                                     C:/Users/jon_000/Git/ALFRED_TEST/Release/arduino.ar(USBCore.cpp.o)
_cend                                             C:/Users/jon_000/Git/ALFRED_TEST/Release/arduino.ar(USBCore.cpp.o)
_cleanup                                          c:/arduino/hardware/tools/g++_arm_none_eabi/bin/../lib/gcc/arm-none-eabi/4.4.1/../../../../arm-none-eabi/lib/thumb2\libc.a(lib_a-findfp.o)
_cleanup_r                                        c:/arduino/hardware/tools/g++_arm_none_eabi/bin/../lib/gcc/arm-none-eabi/4.4.1/../../../../arm-none-eabi/lib/thumb2\libc.a(lib_a-findfp.o)
                                                  c:/arduino/hardware/tools/g++_arm_none_eabi/bin/../lib/gcc/arm-none-eabi/4.4.1/../../../../arm-none-eabi/lib/thumb2\libc.a(lib_a-makebuf.o)
_close                                            C:/Users/jon_000/Git/ALFRED_TEST/Release/arduino/syscalls_sam3.c.o
                                                  c:/arduino/hardware/tools/g++_arm_none_eabi/bin/../lib/gcc/arm-none-eabi/4.4.1/../../../../arm-none-eabi/lib/thumb2\libc.a(lib_a-closer.o)
_close_r                                          c:/arduino/hardware/tools/g++_arm_none_eabi/bin/../lib/gcc/arm-none-eabi/4.4.1/../../../../arm-none-eabi/lib/thumb2\libc.a(lib_a-closer.o)
                                                  c:/arduino/hardware/tools/g++_arm_none_eabi/bin/../lib/gcc/arm-none-eabi/4.4.1/../../../../arm-none-eabi/lib/thumb2\libc.a(lib_a-stdio.o)
_cmark                                            C:/Users/jon_000/Git/ALFRED_TEST/Release/arduino.ar(USBCore.cpp.o)
_ctype_                                           c:/arduino/hardware/tools/g++_arm_none_eabi/bin/../lib/gcc/arm-none-eabi/4.4.1/../../../../arm-none-eabi/lib/thumb2\libc.a(lib_a-ctype_.o)
_dtoa_r                                           c:/arduino/hardware/tools/g++_arm_none_eabi/bin/../lib/gcc/arm-none-eabi/4.4.1/../../../../arm-none-eabi/lib/thumb2\libc.a(lib_a-dtoa.o)
                                                  c:/arduino/hardware/tools/g++_arm_none_eabi/bin/../lib/gcc/arm-none-eabi/4.4.1/../../../../arm-none-eabi/lib/thumb2\libc.a(lib_a-svfprintf.o)
_end                                              C:/Users/jon_000/Git/ALFRED_TEST/Release/arduino/syscalls_sam3.c.o
_erelocate                                        C:/Arduino/hardware/arduino/sam/variants/arduino_due_x/libsam_sam3x8e_gcc_rel.a(startup_sam3xa.o)
_estack                                           C:/Arduino/hardware/arduino/sam/variants/arduino_due_x/libsam_sam3x8e_gcc_rel.a(startup_sam3xa.o)
_etext                                            C:/Arduino/hardware/arduino/sam/variants/arduino_due_x/libsam_sam3x8e_gcc_rel.a(startup_sam3xa.o)
_exit                                             C:/Users/jon_000/Git/ALFRED_TEST/Release/arduino/syscalls_sam3.c.o
                                                  c:/arduino/hardware/tools/g++_arm_none_eabi/bin/../lib/gcc/arm-none-eabi/4.4.1/../../../../arm-none-eabi/lib/thumb2\libc.a(lib_a-abort.o)
_ezero                                            C:/Arduino/hardware/arduino/sam/variants/arduino_due_x/libsam_sam3x8e_gcc_rel.a(startup_sam3xa.o)
_fclose_r                                         c:/arduino/hardware/tools/g++_arm_none_eabi/bin/../lib/gcc/arm-none-eabi/4.4.1/../../../../arm-none-eabi/lib/thumb2\libc.a(lib_a-fclose.o)
_fflush_r                                         c:/arduino/hardware/tools/g++_arm_none_eabi/bin/../lib/gcc/arm-none-eabi/4.4.1/../../../../arm-none-eabi/lib/thumb2\libc.a(lib_a-fflush.o)
                                                  c:/arduino/hardware/tools/g++_arm_none_eabi/bin/../lib/gcc/arm-none-eabi/4.4.1/../../../../arm-none-eabi/lib/thumb2\libc.a(lib_a-fclose.o)
                                                  c:/arduino/hardware/tools/g++_arm_none_eabi/bin/../lib/gcc/arm-none-eabi/4.4.1/../../../../arm-none-eabi/lib/thumb2\libc.a(lib_a-fvwrite.o)
                                                  c:/arduino/hardware/tools/g++_arm_none_eabi/bin/../lib/gcc/arm-none-eabi/4.4.1/../../../../arm-none-eabi/lib/thumb2\libc.a(lib_a-vfiprintf.o)
_fini                                             c:/arduino/hardware/tools/g++_arm_none_eabi/bin/../lib/gcc/arm-none-eabi/4.4.1/thumb2/crti.o
_fiprintf_r                                       c:/arduino/hardware/tools/g++_arm_none_eabi/bin/../lib/gcc/arm-none-eabi/4.4.1/../../../../arm-none-eabi/lib/thumb2\libc.a(lib_a-fiprintf.o)
_free_r                                           c:/arduino/hardware/tools/g++_arm_none_eabi/bin/../lib/gcc/arm-none-eabi/4.4.1/../../../../arm-none-eabi/lib/thumb2\libc.a(lib_a-freer.o)
                                                  c:/arduino/hardware/tools/g++_arm_none_eabi/bin/../lib/gcc/arm-none-eabi/4.4.1/../../../../arm-none-eabi/lib/thumb2\libc.a(lib_a-fclose.o)
                                                  c:/arduino/hardware/tools/g++_arm_none_eabi/bin/../lib/gcc/arm-none-eabi/4.4.1/../../../../arm-none-eabi/lib/thumb2\libc.a(lib_a-reent.o)
                                                  c:/arduino/hardware/tools/g++_arm_none_eabi/bin/../lib/gcc/arm-none-eabi/4.4.1/../../../../arm-none-eabi/lib/thumb2\libc.a(lib_a-fvwrite.o)
                                                  c:/arduino/hardware/tools/g++_arm_none_eabi/bin/../lib/gcc/arm-none-eabi/4.4.1/../../../../arm-none-eabi/lib/thumb2\libc.a(lib_a-fflush.o)
                                                  c:/arduino/hardware/tools/g++_arm_none_eabi/bin/../lib/gcc/arm-none-eabi/4.4.1/../../../../arm-none-eabi/lib/thumb2\libc.a(lib_a-wsetup.o)
                                                  c:/arduino/hardware/tools/g++_arm_none_eabi/bin/../lib/gcc/arm-none-eabi/4.4.1/../../../../arm-none-eabi/lib/thumb2\libc.a(lib_a-svfprintf.o)
                                                  c:/arduino/hardware/tools/g++_arm_none_eabi/bin/../lib/gcc/arm-none-eabi/4.4.1/../../../../arm-none-eabi/lib/thumb2\libc.a(lib_a-reallocr.o)
                                                  c:/arduino/hardware/tools/g++_arm_none_eabi/bin/../lib/gcc/arm-none-eabi/4.4.1/../../../../arm-none-eabi/lib/thumb2\libc.a(lib_a-mallocr.o)
                                                  c:/arduino/hardware/tools/g++_arm_none_eabi/bin/../lib/gcc/arm-none-eabi/4.4.1/../../../../arm-none-eabi/lib/thumb2\libc.a(lib_a-malloc.o)
_fstat                                            C:/Users/jon_000/Git/ALFRED_TEST/Release/arduino/syscalls_sam3.c.o
                                                  c:/arduino/hardware/tools/g++_arm_none_eabi/bin/../lib/gcc/arm-none-eabi/4.4.1/../../../../arm-none-eabi/lib/thumb2\libc.a(lib_a-fstatr.o)
_fstat_r                                          c:/arduino/hardware/tools/g++_arm_none_eabi/bin/../lib/gcc/arm-none-eabi/4.4.1/../../../../arm-none-eabi/lib/thumb2\libc.a(lib_a-fstatr.o)
                                                  c:/arduino/hardware/tools/g++_arm_none_eabi/bin/../lib/gcc/arm-none-eabi/4.4.1/../../../../arm-none-eabi/lib/thumb2\libc.a(lib_a-makebuf.o)
_fwalk                                            c:/arduino/hardware/tools/g++_arm_none_eabi/bin/../lib/gcc/arm-none-eabi/4.4.1/../../../../arm-none-eabi/lib/thumb2\libc.a(lib_a-fwalk.o)
                                                  c:/arduino/hardware/tools/g++_arm_none_eabi/bin/../lib/gcc/arm-none-eabi/4.4.1/../../../../arm-none-eabi/lib/thumb2\libc.a(lib_a-findfp.o)
_fwalk_reent                                      c:/arduino/hardware/tools/g++_arm_none_eabi/bin/../lib/gcc/arm-none-eabi/4.4.1/../../../../arm-none-eabi/lib/thumb2\libc.a(lib_a-fwalk.o)
                                                  c:/arduino/hardware/tools/g++_arm_none_eabi/bin/../lib/gcc/arm-none-eabi/4.4.1/../../../../arm-none-eabi/lib/thumb2\libc.a(lib_a-fflush.o)
_getpid                                           C:/Users/jon_000/Git/ALFRED_TEST/Release/arduino/syscalls_sam3.c.o
                                                  c:/arduino/hardware/tools/g++_arm_none_eabi/bin/../lib/gcc/arm-none-eabi/4.4.1/../../../../arm-none-eabi/lib/thumb2\libc.a(lib_a-signalr.o)
_getpid_r                                         c:/arduino/hardware/tools/g++_arm_none_eabi/bin/../lib/gcc/arm-none-eabi/4.4.1/../../../../arm-none-eabi/lib/thumb2\libc.a(lib_a-signalr.o)
                                                  c:/arduino/hardware/tools/g++_arm_none_eabi/bin/../lib/gcc/arm-none-eabi/4.4.1/../../../../arm-none-eabi/lib/thumb2\libc.a(lib_a-signal.o)
_global_impure_ptr                                c:/arduino/hardware/tools/g++_arm_none_eabi/bin/../lib/gcc/arm-none-eabi/4.4.1/../../../../arm-none-eabi/lib/thumb2\libc.a(lib_a-impure.o)
                                                  c:/arduino/hardware/tools/g++_arm_none_eabi/bin/../lib/gcc/arm-none-eabi/4.4.1/../../../../arm-none-eabi/lib/thumb2\libc.a(lib_a-findfp.o)
                                                  c:/arduino/hardware/tools/g++_arm_none_eabi/bin/../lib/gcc/arm-none-eabi/4.4.1/../../../../arm-none-eabi/lib/thumb2\libc.a(lib_a-fflush.o)
_hidInterface                                     C:/Users/jon_000/Git/ALFRED_TEST/Release/arduino.ar(HID.cpp.o)
_hidReportDescriptor                              C:/Users/jon_000/Git/ALFRED_TEST/Release/arduino.ar(HID.cpp.o)
_hid_idle                                         C:/Users/jon_000/Git/ALFRED_TEST/Release/arduino.ar(HID.cpp.o)
_hid_protocol                                     C:/Users/jon_000/Git/ALFRED_TEST/Release/arduino.ar(HID.cpp.o)
_impure_ptr                                       c:/arduino/hardware/tools/g++_arm_none_eabi/bin/../lib/gcc/arm-none-eabi/4.4.1/../../../../arm-none-eabi/lib/thumb2\libc.a(lib_a-impure.o)
                                                  c:/arduino/hardware/tools/g++_arm_none_eabi/bin/../lib/gcc/arm-none-eabi/4.4.1/../../../../arm-none-eabi/lib/thumb2\libc.a(lib_a-fclose.o)
                                                  c:/arduino/hardware/tools/g++_arm_none_eabi/bin/../lib/gcc/arm-none-eabi/4.4.1/../../../../arm-none-eabi/lib/thumb2\libc.a(lib_a-signal.o)
                                                  c:/arduino/hardware/tools/g++_arm_none_eabi/bin/../lib/gcc/arm-none-eabi/4.4.1/../../../../arm-none-eabi/lib/thumb2\libc.a(lib_a-reent.o)
                                                  c:/arduino/hardware/tools/g++_arm_none_eabi/bin/../lib/gcc/arm-none-eabi/4.4.1/../../../../arm-none-eabi/lib/thumb2\libc.a(lib_a-locale.o)
                                                  c:/arduino/hardware/tools/g++_arm_none_eabi/bin/../lib/gcc/arm-none-eabi/4.4.1/../../../../arm-none-eabi/lib/thumb2\libc.a(lib_a-findfp.o)
                                                  c:/arduino/hardware/tools/g++_arm_none_eabi/bin/../lib/gcc/arm-none-eabi/4.4.1/../../../../arm-none-eabi/lib/thumb2\libc.a(lib_a-fflush.o)
                                                  c:/arduino/hardware/tools/g++_arm_none_eabi/bin/../lib/gcc/arm-none-eabi/4.4.1/../../../../arm-none-eabi/lib/thumb2\libc.a(lib_a-wsetup.o)
                                                  c:/arduino/hardware/tools/g++_arm_none_eabi/bin/../lib/gcc/arm-none-eabi/4.4.1/../../../../arm-none-eabi/lib/thumb2\libc.a(lib_a-vfiprintf.o)
                                                  c:/arduino/hardware/tools/g++_arm_none_eabi/bin/../lib/gcc/arm-none-eabi/4.4.1/../../../../arm-none-eabi/lib/thumb2\libc.a(lib_a-strtol.o)
                                                  c:/arduino/hardware/tools/g++_arm_none_eabi/bin/../lib/gcc/arm-none-eabi/4.4.1/../../../../arm-none-eabi/lib/thumb2\libc.a(lib_a-strtod.o)
                                                  c:/arduino/hardware/tools/g++_arm_none_eabi/bin/../lib/gcc/arm-none-eabi/4.4.1/../../../../arm-none-eabi/lib/thumb2\libc.a(lib_a-sprintf.o)
                                                  c:/arduino/hardware/tools/g++_arm_none_eabi/bin/../lib/gcc/arm-none-eabi/4.4.1/../../../../arm-none-eabi/lib/thumb2\libc.a(lib_a-realloc.o)
                                                  c:/arduino/hardware/tools/g++_arm_none_eabi/bin/../lib/gcc/arm-none-eabi/4.4.1/../../../../arm-none-eabi/lib/thumb2\libc.a(lib_a-malloc.o)
                                                  c:/arduino/hardware/tools/g++_arm_none_eabi/bin/../lib/gcc/arm-none-eabi/4.4.1/../../../../arm-none-eabi/lib/thumb2\libc.a(lib_a-iprintf.o)
                                                  c:/arduino/hardware/tools/g++_arm_none_eabi/bin/../lib/gcc/arm-none-eabi/4.4.1/../../../../arm-none-eabi/lib/thumb2\libc.a(lib_a-fiprintf.o)
                                                  c:/arduino/hardware/tools/g++_arm_none_eabi/bin/../lib/gcc/arm-none-eabi/4.4.1/../../../../arm-none-eabi/lib/thumb2\libc.a(lib_a-assert.o)
_init                                             c:/arduino/hardware/tools/g++_arm_none_eabi/bin/../lib/gcc/arm-none-eabi/4.4.1/thumb2/crti.o
                                                  c:/arduino/hardware/tools/g++_arm_none_eabi/bin/../lib/gcc/arm-none-eabi/4.4.1/../../../../arm-none-eabi/lib/thumb2\libc.a(lib_a-init.o)
_init_signal                                      c:/arduino/hardware/tools/g++_arm_none_eabi/bin/../lib/gcc/arm-none-eabi/4.4.1/../../../../arm-none-eabi/lib/thumb2\libc.a(lib_a-signal.o)
_init_signal_r                                    c:/arduino/hardware/tools/g++_arm_none_eabi/bin/../lib/gcc/arm-none-eabi/4.4.1/../../../../arm-none-eabi/lib/thumb2\libc.a(lib_a-signal.o)
_iprintf_r                                        c:/arduino/hardware/tools/g++_arm_none_eabi/bin/../lib/gcc/arm-none-eabi/4.4.1/../../../../arm-none-eabi/lib/thumb2\libc.a(lib_a-iprintf.o)
_isatty                                           C:/Users/jon_000/Git/ALFRED_TEST/Release/arduino/syscalls_sam3.c.o
                                                  c:/arduino/hardware/tools/g++_arm_none_eabi/bin/../lib/gcc/arm-none-eabi/4.4.1/../../../../arm-none-eabi/lib/thumb2\libc.a(lib_a-isattyr.o)
_isatty_r                                         c:/arduino/hardware/tools/g++_arm_none_eabi/bin/../lib/gcc/arm-none-eabi/4.4.1/../../../../arm-none-eabi/lib/thumb2\libc.a(lib_a-isattyr.o)
                                                  c:/arduino/hardware/tools/g++_arm_none_eabi/bin/../lib/gcc/arm-none-eabi/4.4.1/../../../../arm-none-eabi/lib/thumb2\libc.a(lib_a-makebuf.o)
_kill                                             C:/Users/jon_000/Git/ALFRED_TEST/Release/arduino/syscalls_sam3.c.o
                                                  c:/arduino/hardware/tools/g++_arm_none_eabi/bin/../lib/gcc/arm-none-eabi/4.4.1/../../../../arm-none-eabi/lib/thumb2\libc.a(lib_a-signalr.o)
_kill_r                                           c:/arduino/hardware/tools/g++_arm_none_eabi/bin/../lib/gcc/arm-none-eabi/4.4.1/../../../../arm-none-eabi/lib/thumb2\libc.a(lib_a-signalr.o)
                                                  c:/arduino/hardware/tools/g++_arm_none_eabi/bin/../lib/gcc/arm-none-eabi/4.4.1/../../../../arm-none-eabi/lib/thumb2\libc.a(lib_a-signal.o)
_localeconv_r                                     c:/arduino/hardware/tools/g++_arm_none_eabi/bin/../lib/gcc/arm-none-eabi/4.4.1/../../../../arm-none-eabi/lib/thumb2\libc.a(lib_a-locale.o)
                                                  c:/arduino/hardware/tools/g++_arm_none_eabi/bin/../lib/gcc/arm-none-eabi/4.4.1/../../../../arm-none-eabi/lib/thumb2\libc.a(lib_a-svfprintf.o)
_lseek                                            C:/Users/jon_000/Git/ALFRED_TEST/Release/arduino/syscalls_sam3.c.o
                                                  c:/arduino/hardware/tools/g++_arm_none_eabi/bin/../lib/gcc/arm-none-eabi/4.4.1/../../../../arm-none-eabi/lib/thumb2\libc.a(lib_a-lseekr.o)
_lseek_r                                          c:/arduino/hardware/tools/g++_arm_none_eabi/bin/../lib/gcc/arm-none-eabi/4.4.1/../../../../arm-none-eabi/lib/thumb2\libc.a(lib_a-lseekr.o)
                                                  c:/arduino/hardware/tools/g++_arm_none_eabi/bin/../lib/gcc/arm-none-eabi/4.4.1/../../../../arm-none-eabi/lib/thumb2\libc.a(lib_a-stdio.o)
_malloc_r                                         c:/arduino/hardware/tools/g++_arm_none_eabi/bin/../lib/gcc/arm-none-eabi/4.4.1/../../../../arm-none-eabi/lib/thumb2\libc.a(lib_a-mallocr.o)
                                                  c:/arduino/hardware/tools/g++_arm_none_eabi/bin/../lib/gcc/arm-none-eabi/4.4.1/../../../../arm-none-eabi/lib/thumb2\libc.a(lib_a-callocr.o)
                                                  c:/arduino/hardware/tools/g++_arm_none_eabi/bin/../lib/gcc/arm-none-eabi/4.4.1/../../../../arm-none-eabi/lib/thumb2\libc.a(lib_a-signal.o)
                                                  c:/arduino/hardware/tools/g++_arm_none_eabi/bin/../lib/gcc/arm-none-eabi/4.4.1/../../../../arm-none-eabi/lib/thumb2\libc.a(lib_a-makebuf.o)
                                                  c:/arduino/hardware/tools/g++_arm_none_eabi/bin/../lib/gcc/arm-none-eabi/4.4.1/../../../../arm-none-eabi/lib/thumb2\libc.a(lib_a-fvwrite.o)
                                                  c:/arduino/hardware/tools/g++_arm_none_eabi/bin/../lib/gcc/arm-none-eabi/4.4.1/../../../../arm-none-eabi/lib/thumb2\libc.a(lib_a-findfp.o)
                                                  c:/arduino/hardware/tools/g++_arm_none_eabi/bin/../lib/gcc/arm-none-eabi/4.4.1/../../../../arm-none-eabi/lib/thumb2\libc.a(lib_a-svfprintf.o)
                                                  c:/arduino/hardware/tools/g++_arm_none_eabi/bin/../lib/gcc/arm-none-eabi/4.4.1/../../../../arm-none-eabi/lib/thumb2\libc.a(lib_a-reallocr.o)
                                                  c:/arduino/hardware/tools/g++_arm_none_eabi/bin/../lib/gcc/arm-none-eabi/4.4.1/../../../../arm-none-eabi/lib/thumb2\libc.a(lib_a-malloc.o)
_malloc_trim_r                                    c:/arduino/hardware/tools/g++_arm_none_eabi/bin/../lib/gcc/arm-none-eabi/4.4.1/../../../../arm-none-eabi/lib/thumb2\libc.a(lib_a-freer.o)
_mprec_log10                                      c:/arduino/hardware/tools/g++_arm_none_eabi/bin/../lib/gcc/arm-none-eabi/4.4.1/../../../../arm-none-eabi/lib/thumb2\libc.a(lib_a-mprec.o)
_raise_r                                          c:/arduino/hardware/tools/g++_arm_none_eabi/bin/../lib/gcc/arm-none-eabi/4.4.1/../../../../arm-none-eabi/lib/thumb2\libc.a(lib_a-signal.o)
_read                                             C:/Users/jon_000/Git/ALFRED_TEST/Release/arduino/syscalls_sam3.c.o
                                                  c:/arduino/hardware/tools/g++_arm_none_eabi/bin/../lib/gcc/arm-none-eabi/4.4.1/../../../../arm-none-eabi/lib/thumb2\libc.a(lib_a-readr.o)
_read_r                                           c:/arduino/hardware/tools/g++_arm_none_eabi/bin/../lib/gcc/arm-none-eabi/4.4.1/../../../../arm-none-eabi/lib/thumb2\libc.a(lib_a-readr.o)
                                                  c:/arduino/hardware/tools/g++_arm_none_eabi/bin/../lib/gcc/arm-none-eabi/4.4.1/../../../../arm-none-eabi/lib/thumb2\libc.a(lib_a-stdio.o)
_realloc_r                                        c:/arduino/hardware/tools/g++_arm_none_eabi/bin/../lib/gcc/arm-none-eabi/4.4.1/../../../../arm-none-eabi/lib/thumb2\libc.a(lib_a-reallocr.o)
                                                  c:/arduino/hardware/tools/g++_arm_none_eabi/bin/../lib/gcc/arm-none-eabi/4.4.1/../../../../arm-none-eabi/lib/thumb2\libc.a(lib_a-fvwrite.o)
                                                  c:/arduino/hardware/tools/g++_arm_none_eabi/bin/../lib/gcc/arm-none-eabi/4.4.1/../../../../arm-none-eabi/lib/thumb2\libc.a(lib_a-svfprintf.o)
                                                  c:/arduino/hardware/tools/g++_arm_none_eabi/bin/../lib/gcc/arm-none-eabi/4.4.1/../../../../arm-none-eabi/lib/thumb2\libc.a(lib_a-realloc.o)
_reclaim_reent                                    c:/arduino/hardware/tools/g++_arm_none_eabi/bin/../lib/gcc/arm-none-eabi/4.4.1/../../../../arm-none-eabi/lib/thumb2\libc.a(lib_a-reent.o)
_sbrk                                             C:/Users/jon_000/Git/ALFRED_TEST/Release/arduino/syscalls_sam3.c.o
                                                  c:/arduino/hardware/tools/g++_arm_none_eabi/bin/../lib/gcc/arm-none-eabi/4.4.1/../../../../arm-none-eabi/lib/thumb2\libc.a(lib_a-sbrkr.o)
_sbrk_r                                           c:/arduino/hardware/tools/g++_arm_none_eabi/bin/../lib/gcc/arm-none-eabi/4.4.1/../../../../arm-none-eabi/lib/thumb2\libc.a(lib_a-sbrkr.o)
                                                  c:/arduino/hardware/tools/g++_arm_none_eabi/bin/../lib/gcc/arm-none-eabi/4.4.1/../../../../arm-none-eabi/lib/thumb2\libc.a(lib_a-freer.o)
                                                  c:/arduino/hardware/tools/g++_arm_none_eabi/bin/../lib/gcc/arm-none-eabi/4.4.1/../../../../arm-none-eabi/lib/thumb2\libc.a(lib_a-mallocr.o)
_serialPeek                                       C:/Users/jon_000/Git/ALFRED_TEST/Release/arduino.ar(CDC.cpp.o)
_setlocale_r                                      c:/arduino/hardware/tools/g++_arm_none_eabi/bin/../lib/gcc/arm-none-eabi/4.4.1/../../../../arm-none-eabi/lib/thumb2\libc.a(lib_a-locale.o)
_sfixed                                           C:/Arduino/hardware/arduino/sam/variants/arduino_due_x/libsam_sam3x8e_gcc_rel.a(startup_sam3xa.o)
_signal_r                                         c:/arduino/hardware/tools/g++_arm_none_eabi/bin/../lib/gcc/arm-none-eabi/4.4.1/../../../../arm-none-eabi/lib/thumb2\libc.a(lib_a-signal.o)
_sprintf_r                                        c:/arduino/hardware/tools/g++_arm_none_eabi/bin/../lib/gcc/arm-none-eabi/4.4.1/../../../../arm-none-eabi/lib/thumb2\libc.a(lib_a-sprintf.o)
_srelocate                                        C:/Arduino/hardware/arduino/sam/variants/arduino_due_x/libsam_sam3x8e_gcc_rel.a(startup_sam3xa.o)
_strtod_r                                         c:/arduino/hardware/tools/g++_arm_none_eabi/bin/../lib/gcc/arm-none-eabi/4.4.1/../../../../arm-none-eabi/lib/thumb2\libc.a(lib_a-strtod.o)
_strtol_r                                         c:/arduino/hardware/tools/g++_arm_none_eabi/bin/../lib/gcc/arm-none-eabi/4.4.1/../../../../arm-none-eabi/lib/thumb2\libc.a(lib_a-strtol.o)
                                                  c:/arduino/hardware/tools/g++_arm_none_eabi/bin/../lib/gcc/arm-none-eabi/4.4.1/../../../../arm-none-eabi/lib/thumb2\libc.a(lib_a-atol.o)
_svfprintf_r                                      c:/arduino/hardware/tools/g++_arm_none_eabi/bin/../lib/gcc/arm-none-eabi/4.4.1/../../../../arm-none-eabi/lib/thumb2\libc.a(lib_a-svfprintf.o)
                                                  c:/arduino/hardware/tools/g++_arm_none_eabi/bin/../lib/gcc/arm-none-eabi/4.4.1/../../../../arm-none-eabi/lib/thumb2\libc.a(lib_a-sprintf.o)
_szero                                            C:/Arduino/hardware/arduino/sam/variants/arduino_due_x/libsam_sam3x8e_gcc_rel.a(startup_sam3xa.o)
_usbConfiguration                                 C:/Users/jon_000/Git/ALFRED_TEST/Release/arduino.ar(USBCore.cpp.o)
_usbInitialized                                   C:/Users/jon_000/Git/ALFRED_TEST/Release/arduino.ar(USBCore.cpp.o)
_usbSetInterface                                  C:/Users/jon_000/Git/ALFRED_TEST/Release/arduino.ar(USBCore.cpp.o)
_vfiprintf_r                                      c:/arduino/hardware/tools/g++_arm_none_eabi/bin/../lib/gcc/arm-none-eabi/4.4.1/../../../../arm-none-eabi/lib/thumb2\libc.a(lib_a-vfiprintf.o)
                                                  c:/arduino/hardware/tools/g++_arm_none_eabi/bin/../lib/gcc/arm-none-eabi/4.4.1/../../../../arm-none-eabi/lib/thumb2\libc.a(lib_a-iprintf.o)
                                                  c:/arduino/hardware/tools/g++_arm_none_eabi/bin/../lib/gcc/arm-none-eabi/4.4.1/../../../../arm-none-eabi/lib/thumb2\libc.a(lib_a-fiprintf.o)
_wrapup_reent                                     c:/arduino/hardware/tools/g++_arm_none_eabi/bin/../lib/gcc/arm-none-eabi/4.4.1/../../../../arm-none-eabi/lib/thumb2\libc.a(lib_a-reent.o)
_write                                            C:/Users/jon_000/Git/ALFRED_TEST/Release/arduino/syscalls_sam3.c.o
                                                  c:/arduino/hardware/tools/g++_arm_none_eabi/bin/../lib/gcc/arm-none-eabi/4.4.1/../../../../arm-none-eabi/lib/thumb2\libc.a(lib_a-writer.o)
_write_r                                          c:/arduino/hardware/tools/g++_arm_none_eabi/bin/../lib/gcc/arm-none-eabi/4.4.1/../../../../arm-none-eabi/lib/thumb2\libc.a(lib_a-writer.o)
                                                  c:/arduino/hardware/tools/g++_arm_none_eabi/bin/../lib/gcc/arm-none-eabi/4.4.1/../../../../arm-none-eabi/lib/thumb2\libc.a(lib_a-stdio.o)
abort                                             c:/arduino/hardware/tools/g++_arm_none_eabi/bin/../lib/gcc/arm-none-eabi/4.4.1/../../../../arm-none-eabi/lib/thumb2\libc.a(lib_a-abort.o)
                                                  c:/arduino/hardware/tools/g++_arm_none_eabi/bin/../lib/gcc/arm-none-eabi/4.4.1/../../../../arm-none-eabi/lib/thumb2\libc.a(lib_a-assert.o)
adc_configure_power_save                          C:/Arduino/hardware/arduino/sam/variants/arduino_due_x/libsam_sam3x8e_gcc_rel.a(adc.o)
adc_configure_sequence                            C:/Arduino/hardware/arduino/sam/variants/arduino_due_x/libsam_sam3x8e_gcc_rel.a(adc.o)
adc_configure_timing                              C:/Arduino/hardware/arduino/sam/variants/arduino_due_x/libsam_sam3x8e_gcc_rel.a(adc.o)
                                                  C:/Users/jon_000/Git/ALFRED_TEST/Release/arduino.ar(variant.cpp.o)
adc_configure_trigger                             C:/Arduino/hardware/arduino/sam/variants/arduino_due_x/libsam_sam3x8e_gcc_rel.a(adc.o)
                                                  C:/Users/jon_000/Git/ALFRED_TEST/Release/arduino.ar(variant.cpp.o)
adc_disable_all_channel                           C:/Arduino/hardware/arduino/sam/variants/arduino_due_x/libsam_sam3x8e_gcc_rel.a(adc.o)
                                                  C:/Users/jon_000/Git/ALFRED_TEST/Release/arduino.ar(variant.cpp.o)
adc_disable_anch                                  C:/Arduino/hardware/arduino/sam/variants/arduino_due_x/libsam_sam3x8e_gcc_rel.a(adc.o)
adc_disable_channel                               C:/Arduino/hardware/arduino/sam/variants/arduino_due_x/libsam_sam3x8e_gcc_rel.a(adc.o)
adc_disable_channel_differential_input            C:/Arduino/hardware/arduino/sam/variants/arduino_due_x/libsam_sam3x8e_gcc_rel.a(adc.o)
adc_disable_channel_input_offset                  C:/Arduino/hardware/arduino/sam/variants/arduino_due_x/libsam_sam3x8e_gcc_rel.a(adc.o)
adc_disable_interrupt                             C:/Arduino/hardware/arduino/sam/variants/arduino_due_x/libsam_sam3x8e_gcc_rel.a(adc.o)
                                                  C:/Users/jon_000/Git/ALFRED_TEST/Release/arduino.ar(variant.cpp.o)
adc_disable_tag                                   C:/Arduino/hardware/arduino/sam/variants/arduino_due_x/libsam_sam3x8e_gcc_rel.a(adc.o)
adc_disable_ts                                    C:/Arduino/hardware/arduino/sam/variants/arduino_due_x/libsam_sam3x8e_gcc_rel.a(adc.o)
adc_enable_all_channel                            C:/Arduino/hardware/arduino/sam/variants/arduino_due_x/libsam_sam3x8e_gcc_rel.a(adc.o)
adc_enable_anch                                   C:/Arduino/hardware/arduino/sam/variants/arduino_due_x/libsam_sam3x8e_gcc_rel.a(adc.o)
adc_enable_channel                                C:/Arduino/hardware/arduino/sam/variants/arduino_due_x/libsam_sam3x8e_gcc_rel.a(adc.o)
                                                  C:/Users/jon_000/Git/ALFRED_TEST/Release/arduino.ar(wiring_analog.c.o)
adc_enable_channel_differential_input             C:/Arduino/hardware/arduino/sam/variants/arduino_due_x/libsam_sam3x8e_gcc_rel.a(adc.o)
adc_enable_channel_input_offset                   C:/Arduino/hardware/arduino/sam/variants/arduino_due_x/libsam_sam3x8e_gcc_rel.a(adc.o)
adc_enable_interrupt                              C:/Arduino/hardware/arduino/sam/variants/arduino_due_x/libsam_sam3x8e_gcc_rel.a(adc.o)
adc_enable_tag                                    C:/Arduino/hardware/arduino/sam/variants/arduino_due_x/libsam_sam3x8e_gcc_rel.a(adc.o)
adc_enable_ts                                     C:/Arduino/hardware/arduino/sam/variants/arduino_due_x/libsam_sam3x8e_gcc_rel.a(adc.o)
adc_get_actual_adc_clock                          C:/Arduino/hardware/arduino/sam/variants/arduino_due_x/libsam_sam3x8e_gcc_rel.a(adc.o)
adc_get_channel_status                            C:/Arduino/hardware/arduino/sam/variants/arduino_due_x/libsam_sam3x8e_gcc_rel.a(adc.o)
adc_get_channel_value                             C:/Arduino/hardware/arduino/sam/variants/arduino_due_x/libsam_sam3x8e_gcc_rel.a(adc.o)
adc_get_comparison_mode                           C:/Arduino/hardware/arduino/sam/variants/arduino_due_x/libsam_sam3x8e_gcc_rel.a(adc.o)
adc_get_interrupt_mask                            C:/Arduino/hardware/arduino/sam/variants/arduino_due_x/libsam_sam3x8e_gcc_rel.a(adc.o)
adc_get_latest_value                              C:/Arduino/hardware/arduino/sam/variants/arduino_due_x/libsam_sam3x8e_gcc_rel.a(adc.o)
                                                  C:/Users/jon_000/Git/ALFRED_TEST/Release/arduino.ar(wiring_analog.c.o)
adc_get_overrun_status                            C:/Arduino/hardware/arduino/sam/variants/arduino_due_x/libsam_sam3x8e_gcc_rel.a(adc.o)
adc_get_pdc_base                                  C:/Arduino/hardware/arduino/sam/variants/arduino_due_x/libsam_sam3x8e_gcc_rel.a(adc.o)
adc_get_status                                    C:/Arduino/hardware/arduino/sam/variants/arduino_due_x/libsam_sam3x8e_gcc_rel.a(adc.o)
                                                  C:/Users/jon_000/Git/ALFRED_TEST/Release/arduino.ar(wiring_analog.c.o)
adc_get_tag                                       C:/Arduino/hardware/arduino/sam/variants/arduino_due_x/libsam_sam3x8e_gcc_rel.a(adc.o)
adc_get_writeprotect_status                       C:/Arduino/hardware/arduino/sam/variants/arduino_due_x/libsam_sam3x8e_gcc_rel.a(adc.o)
adc_init                                          C:/Arduino/hardware/arduino/sam/variants/arduino_due_x/libsam_sam3x8e_gcc_rel.a(adc.o)
                                                  C:/Users/jon_000/Git/ALFRED_TEST/Release/arduino.ar(variant.cpp.o)
adc_set_bias_current                              C:/Arduino/hardware/arduino/sam/variants/arduino_due_x/libsam_sam3x8e_gcc_rel.a(adc.o)
adc_set_channel_input_gain                        C:/Arduino/hardware/arduino/sam/variants/arduino_due_x/libsam_sam3x8e_gcc_rel.a(adc.o)
adc_set_comparison_channel                        C:/Arduino/hardware/arduino/sam/variants/arduino_due_x/libsam_sam3x8e_gcc_rel.a(adc.o)
adc_set_comparison_mode                           C:/Arduino/hardware/arduino/sam/variants/arduino_due_x/libsam_sam3x8e_gcc_rel.a(adc.o)
adc_set_comparison_window                         C:/Arduino/hardware/arduino/sam/variants/arduino_due_x/libsam_sam3x8e_gcc_rel.a(adc.o)
adc_set_resolution                                C:/Arduino/hardware/arduino/sam/variants/arduino_due_x/libsam_sam3x8e_gcc_rel.a(adc.o)
adc_set_writeprotect                              C:/Arduino/hardware/arduino/sam/variants/arduino_due_x/libsam_sam3x8e_gcc_rel.a(adc.o)
adc_start                                         C:/Arduino/hardware/arduino/sam/variants/arduino_due_x/libsam_sam3x8e_gcc_rel.a(adc.o)
                                                  C:/Users/jon_000/Git/ALFRED_TEST/Release/arduino.ar(wiring_analog.c.o)
adc_start_sequencer                               C:/Arduino/hardware/arduino/sam/variants/arduino_due_x/libsam_sam3x8e_gcc_rel.a(adc.o)
adc_stop                                          C:/Arduino/hardware/arduino/sam/variants/arduino_due_x/libsam_sam3x8e_gcc_rel.a(adc.o)
adc_stop_sequencer                                C:/Arduino/hardware/arduino/sam/variants/arduino_due_x/libsam_sam3x8e_gcc_rel.a(adc.o)
analogOutputInit                                  C:/Users/jon_000/Git/ALFRED_TEST/Release/arduino.ar(wiring_analog.c.o)
                                                  C:/Users/jon_000/Git/ALFRED_TEST/Release/arduino.ar(variant.cpp.o)
analogRead                                        C:/Users/jon_000/Git/ALFRED_TEST/Release/arduino.ar(wiring_analog.c.o)
analogReadResolution                              C:/Users/jon_000/Git/ALFRED_TEST/Release/arduino.ar(wiring_analog.c.o)
analogReference                                   C:/Users/jon_000/Git/ALFRED_TEST/Release/arduino.ar(wiring_analog.c.o)
analogWrite                                       C:/Users/jon_000/Git/ALFRED_TEST/Release/arduino.ar(wiring_analog.c.o)
analogWriteResolution                             C:/Users/jon_000/Git/ALFRED_TEST/Release/arduino.ar(wiring_analog.c.o)
analog_reference                                  C:/Users/jon_000/Git/ALFRED_TEST/Release/arduino.ar(wiring_analog.c.o)
atof                                              c:/arduino/hardware/tools/g++_arm_none_eabi/bin/../lib/gcc/arm-none-eabi/4.4.1/../../../../arm-none-eabi/lib/thumb2\libc.a(lib_a-atof.o)
                                                  C:/Users/jon_000/Git/ALFRED_TEST/Release/arduino.ar(WString.cpp.o)
atol                                              c:/arduino/hardware/tools/g++_arm_none_eabi/bin/../lib/gcc/arm-none-eabi/4.4.1/../../../../arm-none-eabi/lib/thumb2\libc.a(lib_a-atol.o)
                                                  C:/Users/jon_000/Git/ALFRED_TEST/Release/arduino.ar(WString.cpp.o)
attachInterrupt                                   C:/Users/jon_000/Git/ALFRED_TEST/Release/arduino.ar(WInterrupts.c.o)
banzai                                            C:/Users/jon_000/Git/ALFRED_TEST/Release/arduino.ar(Reset.cpp.o)
cancelReset                                       C:/Users/jon_000/Git/ALFRED_TEST/Release/arduino.ar(Reset.cpp.o)
                                                  C:/Users/jon_000/Git/ALFRED_TEST/Release/arduino.ar(CDC.cpp.o)
cdc_rx_buffer                                     C:/Users/jon_000/Git/ALFRED_TEST/Release/arduino.ar(CDC.cpp.o)
cleanup_glue                                      c:/arduino/hardware/tools/g++_arm_none_eabi/bin/../lib/gcc/arm-none-eabi/4.4.1/../../../../arm-none-eabi/lib/thumb2\libc.a(lib_a-reent.o)
com                                               ./ALFRED_TEST.cpp.o
connected                                         ./ALFRED_TEST.cpp.o
dacc_disable_channel                              C:/Arduino/hardware/arduino/sam/variants/arduino_due_x/libsam_sam3x8e_gcc_rel.a(dacc.o)
dacc_disable_interrupt                            C:/Arduino/hardware/arduino/sam/variants/arduino_due_x/libsam_sam3x8e_gcc_rel.a(dacc.o)
dacc_disable_trigger                              C:/Arduino/hardware/arduino/sam/variants/arduino_due_x/libsam_sam3x8e_gcc_rel.a(dacc.o)
dacc_enable_channel                               C:/Arduino/hardware/arduino/sam/variants/arduino_due_x/libsam_sam3x8e_gcc_rel.a(dacc.o)
                                                  C:/Users/jon_000/Git/ALFRED_TEST/Release/arduino.ar(wiring_analog.c.o)
dacc_enable_flexible_selection                    C:/Arduino/hardware/arduino/sam/variants/arduino_due_x/libsam_sam3x8e_gcc_rel.a(dacc.o)
dacc_enable_interrupt                             C:/Arduino/hardware/arduino/sam/variants/arduino_due_x/libsam_sam3x8e_gcc_rel.a(dacc.o)
dacc_get_analog_control                           C:/Arduino/hardware/arduino/sam/variants/arduino_due_x/libsam_sam3x8e_gcc_rel.a(dacc.o)
dacc_get_channel_status                           C:/Arduino/hardware/arduino/sam/variants/arduino_due_x/libsam_sam3x8e_gcc_rel.a(dacc.o)
                                                  C:/Users/jon_000/Git/ALFRED_TEST/Release/arduino.ar(wiring_analog.c.o)
dacc_get_interrupt_mask                           C:/Arduino/hardware/arduino/sam/variants/arduino_due_x/libsam_sam3x8e_gcc_rel.a(dacc.o)
dacc_get_interrupt_status                         C:/Arduino/hardware/arduino/sam/variants/arduino_due_x/libsam_sam3x8e_gcc_rel.a(dacc.o)
                                                  C:/Users/jon_000/Git/ALFRED_TEST/Release/arduino.ar(wiring_analog.c.o)
dacc_get_pdc_base                                 C:/Arduino/hardware/arduino/sam/variants/arduino_due_x/libsam_sam3x8e_gcc_rel.a(dacc.o)
dacc_get_writeprotect_status                      C:/Arduino/hardware/arduino/sam/variants/arduino_due_x/libsam_sam3x8e_gcc_rel.a(dacc.o)
dacc_reset                                        C:/Arduino/hardware/arduino/sam/variants/arduino_due_x/libsam_sam3x8e_gcc_rel.a(dacc.o)
                                                  C:/Users/jon_000/Git/ALFRED_TEST/Release/arduino.ar(wiring_analog.c.o)
dacc_set_analog_control                           C:/Arduino/hardware/arduino/sam/variants/arduino_due_x/libsam_sam3x8e_gcc_rel.a(dacc.o)
                                                  C:/Users/jon_000/Git/ALFRED_TEST/Release/arduino.ar(wiring_analog.c.o)
dacc_set_channel_selection                        C:/Arduino/hardware/arduino/sam/variants/arduino_due_x/libsam_sam3x8e_gcc_rel.a(dacc.o)
                                                  C:/Users/jon_000/Git/ALFRED_TEST/Release/arduino.ar(wiring_analog.c.o)
dacc_set_power_save                               C:/Arduino/hardware/arduino/sam/variants/arduino_due_x/libsam_sam3x8e_gcc_rel.a(dacc.o)
                                                  C:/Users/jon_000/Git/ALFRED_TEST/Release/arduino.ar(wiring_analog.c.o)
dacc_set_timing                                   C:/Arduino/hardware/arduino/sam/variants/arduino_due_x/libsam_sam3x8e_gcc_rel.a(dacc.o)
                                                  C:/Users/jon_000/Git/ALFRED_TEST/Release/arduino.ar(wiring_analog.c.o)
dacc_set_transfer_mode                            C:/Arduino/hardware/arduino/sam/variants/arduino_due_x/libsam_sam3x8e_gcc_rel.a(dacc.o)
                                                  C:/Users/jon_000/Git/ALFRED_TEST/Release/arduino.ar(wiring_analog.c.o)
dacc_set_trigger                                  C:/Arduino/hardware/arduino/sam/variants/arduino_due_x/libsam_sam3x8e_gcc_rel.a(dacc.o)
dacc_set_writeprotect                             C:/Arduino/hardware/arduino/sam/variants/arduino_due_x/libsam_sam3x8e_gcc_rel.a(dacc.o)
dacc_write_conversion_data                        C:/Arduino/hardware/arduino/sam/variants/arduino_due_x/libsam_sam3x8e_gcc_rel.a(dacc.o)
                                                  C:/Users/jon_000/Git/ALFRED_TEST/Release/arduino.ar(wiring_analog.c.o)
delay                                             C:/Users/jon_000/Git/ALFRED_TEST/Release/arduino.ar(wiring.c.o)
                                                  C:/Users/jon_000/Git/ALFRED_TEST/Release/arduino.ar(CDC.cpp.o)
                                                  C:/Users/jon_000/Git/ALFRED_TEST/Release/arduino.ar(USBCore.cpp.o)
                                                  C:/Users/jon_000/Git/ALFRED_TEST/Release/arduino.ar(main.cpp.o)
detachInterrupt                                   C:/Users/jon_000/Git/ALFRED_TEST/Release/arduino.ar(WInterrupts.c.o)
digitalRead                                       C:/Users/jon_000/Git/ALFRED_TEST/Release/arduino.ar(wiring_digital.c.o)
digitalWrite                                      C:/Users/jon_000/Git/ALFRED_TEST/Release/arduino.ar(wiring_digital.c.o)
                                                  C:/Users/jon_000/Git/ALFRED_TEST/Release/arduino.ar(wiring_analog.c.o)
                                                  C:/Users/jon_000/Git/ALFRED_TEST/Release/arduino.ar(variant.cpp.o)
                                                  ./ALFRED_TEST.cpp.o
dtostrf                                           C:/Users/jon_000/Git/ALFRED_TEST/Release/arduino.ar(dtostrf.c.o)
                                                  C:/Users/jon_000/Git/ALFRED_TEST/Release/arduino.ar(WString.cpp.o)
errno                                             c:/arduino/hardware/tools/g++_arm_none_eabi/bin/../lib/gcc/arm-none-eabi/4.4.1/../../../../arm-none-eabi/lib/thumb2\libc.a(lib_a-readr.o)
                                                  c:/arduino/hardware/tools/g++_arm_none_eabi/bin/../lib/gcc/arm-none-eabi/4.4.1/../../../../arm-none-eabi/lib/thumb2\libc.a(lib_a-lseekr.o)
                                                  c:/arduino/hardware/tools/g++_arm_none_eabi/bin/../lib/gcc/arm-none-eabi/4.4.1/../../../../arm-none-eabi/lib/thumb2\libc.a(lib_a-isattyr.o)
                                                  c:/arduino/hardware/tools/g++_arm_none_eabi/bin/../lib/gcc/arm-none-eabi/4.4.1/../../../../arm-none-eabi/lib/thumb2\libc.a(lib_a-fstatr.o)
                                                  c:/arduino/hardware/tools/g++_arm_none_eabi/bin/../lib/gcc/arm-none-eabi/4.4.1/../../../../arm-none-eabi/lib/thumb2\libc.a(lib_a-closer.o)
                                                  c:/arduino/hardware/tools/g++_arm_none_eabi/bin/../lib/gcc/arm-none-eabi/4.4.1/../../../../arm-none-eabi/lib/thumb2\libc.a(lib_a-writer.o)
                                                  c:/arduino/hardware/tools/g++_arm_none_eabi/bin/../lib/gcc/arm-none-eabi/4.4.1/../../../../arm-none-eabi/lib/thumb2\libc.a(lib_a-signalr.o)
                                                  c:/arduino/hardware/tools/g++_arm_none_eabi/bin/../lib/gcc/arm-none-eabi/4.4.1/../../../../arm-none-eabi/lib/thumb2\libc.a(lib_a-reent.o)
                                                  c:/arduino/hardware/tools/g++_arm_none_eabi/bin/../lib/gcc/arm-none-eabi/4.4.1/../../../../arm-none-eabi/lib/thumb2\libc.a(lib_a-sbrkr.o)
error                                             ./ALFRED_TEST.cpp.o
exception_table                                   C:/Arduino/hardware/arduino/sam/variants/arduino_due_x/libsam_sam3x8e_gcc_rel.a(startup_sam3xa.o)
fclose                                            c:/arduino/hardware/tools/g++_arm_none_eabi/bin/../lib/gcc/arm-none-eabi/4.4.1/../../../../arm-none-eabi/lib/thumb2\libc.a(lib_a-fclose.o)
                                                  c:/arduino/hardware/tools/g++_arm_none_eabi/bin/../lib/gcc/arm-none-eabi/4.4.1/../../../../arm-none-eabi/lib/thumb2\libc.a(lib_a-findfp.o)
fflush                                            c:/arduino/hardware/tools/g++_arm_none_eabi/bin/../lib/gcc/arm-none-eabi/4.4.1/../../../../arm-none-eabi/lib/thumb2\libc.a(lib_a-fflush.o)
fiprintf                                          c:/arduino/hardware/tools/g++_arm_none_eabi/bin/../lib/gcc/arm-none-eabi/4.4.1/../../../../arm-none-eabi/lib/thumb2\libc.a(lib_a-fiprintf.o)
                                                  c:/arduino/hardware/tools/g++_arm_none_eabi/bin/../lib/gcc/arm-none-eabi/4.4.1/../../../../arm-none-eabi/lib/thumb2\libc.a(lib_a-assert.o)
free                                              c:/arduino/hardware/tools/g++_arm_none_eabi/bin/../lib/gcc/arm-none-eabi/4.4.1/../../../../arm-none-eabi/lib/thumb2\libc.a(lib_a-malloc.o)
                                                  C:/Users/jon_000/Git/ALFRED_TEST/Release/arduino.ar(WString.cpp.o)
g_APinDescription                                 C:/Users/jon_000/Git/ALFRED_TEST/Release/arduino.ar(variant.cpp.o)
                                                  C:/Users/jon_000/Git/ALFRED_TEST/Release/arduino.ar(WInterrupts.c.o)
                                                  C:/Users/jon_000/Git/ALFRED_TEST/Release/arduino.ar(wiring_digital.c.o)
                                                  C:/Users/jon_000/Git/ALFRED_TEST/Release/arduino.ar(wiring_analog.c.o)
g_interrupt_enabled                               C:/Arduino/hardware/arduino/sam/variants/arduino_due_x/libsam_sam3x8e_gcc_rel.a(interrupt_sam_nvic.o)
                                                  C:/Arduino/hardware/arduino/sam/variants/arduino_due_x/libsam_sam3x8e_gcc_rel.a(uotghs_device.o)
                                                  C:/Users/jon_000/Git/ALFRED_TEST/Release/arduino.ar(USBCore.cpp.o)
gpf_isr                                           C:/Arduino/hardware/arduino/sam/variants/arduino_due_x/libsam_sam3x8e_gcc_rel.a(uotghs.o)
                                                  C:/Arduino/hardware/arduino/sam/variants/arduino_due_x/libsam_sam3x8e_gcc_rel.a(uotghs_device.o)
init                                              C:/Users/jon_000/Git/ALFRED_TEST/Release/arduino.ar(variant.cpp.o)
                                                  C:/Users/jon_000/Git/ALFRED_TEST/Release/arduino.ar(main.cpp.o)
init_watchdog                                     ./ALFRED_TEST.cpp.o
initiateReset                                     C:/Users/jon_000/Git/ALFRED_TEST/Release/arduino.ar(Reset.cpp.o)
                                                  C:/Users/jon_000/Git/ALFRED_TEST/Release/arduino.ar(CDC.cpp.o)
iprintf                                           c:/arduino/hardware/tools/g++_arm_none_eabi/bin/../lib/gcc/arm-none-eabi/4.4.1/../../../../arm-none-eabi/lib/thumb2\libc.a(lib_a-iprintf.o)
                                                  C:/Users/jon_000/Git/ALFRED_TEST/Release/arduino/syscalls_sam3.c.o
isspace                                           c:/arduino/hardware/tools/g++_arm_none_eabi/bin/../lib/gcc/arm-none-eabi/4.4.1/../../../../arm-none-eabi/lib/thumb2\libc.a(lib_a-isspace.o)
                                                  C:/Users/jon_000/Git/ALFRED_TEST/Release/arduino.ar(WString.cpp.o)
itoa                                              C:/Users/jon_000/Git/ALFRED_TEST/Release/arduino.ar(itoa.c.o)
                                                  C:/Users/jon_000/Git/ALFRED_TEST/Release/arduino.ar(WString.cpp.o)
link                                              C:/Users/jon_000/Git/ALFRED_TEST/Release/arduino/syscalls_sam3.c.o
localeconv                                        c:/arduino/hardware/tools/g++_arm_none_eabi/bin/../lib/gcc/arm-none-eabi/4.4.1/../../../../arm-none-eabi/lib/thumb2\libc.a(lib_a-locale.o)
loop                                              ./ALFRED_TEST.cpp.o
                                                  C:/Users/jon_000/Git/ALFRED_TEST/Release/arduino.ar(main.cpp.o)
ltoa                                              C:/Users/jon_000/Git/ALFRED_TEST/Release/arduino.ar(itoa.c.o)
                                                  C:/Users/jon_000/Git/ALFRED_TEST/Release/arduino.ar(WString.cpp.o)
main                                              C:/Users/jon_000/Git/ALFRED_TEST/Release/arduino.ar(main.cpp.o)
                                                  C:/Arduino/hardware/arduino/sam/variants/arduino_due_x/libsam_sam3x8e_gcc_rel.a(startup_sam3xa.o)
malloc                                            c:/arduino/hardware/tools/g++_arm_none_eabi/bin/../lib/gcc/arm-none-eabi/4.4.1/../../../../arm-none-eabi/lib/thumb2\libc.a(lib_a-malloc.o)
                                                  c:/arduino/hardware/tools/g++_arm_none_eabi/bin/../lib/gcc/arm-none-eabi/4.4.1/../../../../arm-none-eabi/lib/thumb2\libc.a(lib_a-mprec.o)
                                                  c:/arduino/hardware/tools/g++_arm_none_eabi/bin/../lib/gcc/arm-none-eabi/4.4.1/../../../../arm-none-eabi/lib/thumb2\libc.a(lib_a-dtoa.o)
memchr                                            c:/arduino/hardware/tools/g++_arm_none_eabi/bin/../lib/gcc/arm-none-eabi/4.4.1/../../../../arm-none-eabi/lib/thumb2\libc.a(lib_a-memchr.o)
                                                  c:/arduino/hardware/tools/g++_arm_none_eabi/bin/../lib/gcc/arm-none-eabi/4.4.1/../../../../arm-none-eabi/lib/thumb2\libc.a(lib_a-fvwrite.o)
                                                  c:/arduino/hardware/tools/g++_arm_none_eabi/bin/../lib/gcc/arm-none-eabi/4.4.1/../../../../arm-none-eabi/lib/thumb2\libc.a(lib_a-vfiprintf.o)
                                                  c:/arduino/hardware/tools/g++_arm_none_eabi/bin/../lib/gcc/arm-none-eabi/4.4.1/../../../../arm-none-eabi/lib/thumb2\libc.a(lib_a-svfprintf.o)
                                                  c:/arduino/hardware/tools/g++_arm_none_eabi/bin/../lib/gcc/arm-none-eabi/4.4.1/../../../../arm-none-eabi/lib/thumb2\libc.a(lib_a-strstr.o)
memcmp                                            c:/arduino/hardware/tools/g++_arm_none_eabi/bin/../lib/gcc/arm-none-eabi/4.4.1/../../../../arm-none-eabi/lib/thumb2\libc.a(lib_a-memcmp.o)
                                                  c:/arduino/hardware/tools/g++_arm_none_eabi/bin/../lib/gcc/arm-none-eabi/4.4.1/../../../../arm-none-eabi/lib/thumb2\libc.a(lib_a-strstr.o)
memcpy                                            c:/arduino/hardware/tools/g++_arm_none_eabi/bin/../lib/gcc/arm-none-eabi/4.4.1/../../../../arm-none-eabi/lib/thumb2\libc.a(lib_a-memcpy.o)
                                                  c:/arduino/hardware/tools/g++_arm_none_eabi/bin/../lib/gcc/arm-none-eabi/4.4.1/../../../../arm-none-eabi/lib/thumb2\libc.a(lib_a-mprec.o)
                                                  c:/arduino/hardware/tools/g++_arm_none_eabi/bin/../lib/gcc/arm-none-eabi/4.4.1/../../../../arm-none-eabi/lib/thumb2\libc.a(lib_a-gdtoa-gethex.o)
                                                  c:/arduino/hardware/tools/g++_arm_none_eabi/bin/../lib/gcc/arm-none-eabi/4.4.1/../../../../arm-none-eabi/lib/thumb2\libc.a(lib_a-fvwrite.o)
                                                  c:/arduino/hardware/tools/g++_arm_none_eabi/bin/../lib/gcc/arm-none-eabi/4.4.1/../../../../arm-none-eabi/lib/thumb2\libc.a(lib_a-dtoa.o)
                                                  c:/arduino/hardware/tools/g++_arm_none_eabi/bin/../lib/gcc/arm-none-eabi/4.4.1/../../../../arm-none-eabi/lib/thumb2\libc.a(lib_a-svfprintf.o)
                                                  c:/arduino/hardware/tools/g++_arm_none_eabi/bin/../lib/gcc/arm-none-eabi/4.4.1/../../../../arm-none-eabi/lib/thumb2\libc.a(lib_a-strtod.o)
                                                  C:/Users/jon_000/Git/ALFRED_TEST/Release/arduino.ar(WString.cpp.o)
memmove                                           c:/arduino/hardware/tools/g++_arm_none_eabi/bin/../lib/gcc/arm-none-eabi/4.4.1/../../../../arm-none-eabi/lib/thumb2\libc.a(lib_a-memmove.o)
                                                  c:/arduino/hardware/tools/g++_arm_none_eabi/bin/../lib/gcc/arm-none-eabi/4.4.1/../../../../arm-none-eabi/lib/thumb2\libc.a(lib_a-fvwrite.o)
                                                  c:/arduino/hardware/tools/g++_arm_none_eabi/bin/../lib/gcc/arm-none-eabi/4.4.1/../../../../arm-none-eabi/lib/thumb2\libc.a(lib_a-svfprintf.o)
                                                  c:/arduino/hardware/tools/g++_arm_none_eabi/bin/../lib/gcc/arm-none-eabi/4.4.1/../../../../arm-none-eabi/lib/thumb2\libc.a(lib_a-reallocr.o)
                                                  C:/Users/jon_000/Git/ALFRED_TEST/Release/arduino.ar(WString.cpp.o)
memset                                            c:/arduino/hardware/tools/g++_arm_none_eabi/bin/../lib/gcc/arm-none-eabi/4.4.1/../../../../arm-none-eabi/lib/thumb2\libc.a(lib_a-memset.o)
                                                  c:/arduino/hardware/tools/g++_arm_none_eabi/bin/../lib/gcc/arm-none-eabi/4.4.1/../../../../arm-none-eabi/lib/thumb2\libc.a(lib_a-callocr.o)
                                                  c:/arduino/hardware/tools/g++_arm_none_eabi/bin/../lib/gcc/arm-none-eabi/4.4.1/../../../../arm-none-eabi/lib/thumb2\libc.a(lib_a-findfp.o)
                                                  C:/Users/jon_000/Git/ALFRED_TEST/Release/arduino.ar(USBCore.cpp.o)
                                                  C:/Users/jon_000/Git/ALFRED_TEST/Release/arduino.ar(RingBuffer.cpp.o)
                                                  ./ALFRED_TEST.cpp.o
micros                                            C:/Users/jon_000/Git/ALFRED_TEST/Release/arduino.ar(wiring.c.o)
millis                                            C:/Users/jon_000/Git/ALFRED_TEST/Release/arduino.ar(wiring.c.o)
                                                  C:/Users/jon_000/Git/ALFRED_TEST/Release/arduino.ar(CDC.cpp.o)
                                                  C:/Users/jon_000/Git/ALFRED_TEST/Release/arduino.ar(Stream.cpp.o)
operator+(StringSumHelper const&, String const&)  C:/Users/jon_000/Git/ALFRED_TEST/Release/arduino.ar(WString.cpp.o)
operator+(StringSumHelper const&, __FlashStringHelper const*) C:/Users/jon_000/Git/ALFRED_TEST/Release/arduino.ar(WString.cpp.o)
operator+(StringSumHelper const&, char const*)    C:/Users/jon_000/Git/ALFRED_TEST/Release/arduino.ar(WString.cpp.o)
operator+(StringSumHelper const&, char)           C:/Users/jon_000/Git/ALFRED_TEST/Release/arduino.ar(WString.cpp.o)
operator+(StringSumHelper const&, double)         C:/Users/jon_000/Git/ALFRED_TEST/Release/arduino.ar(WString.cpp.o)
operator+(StringSumHelper const&, float)          C:/Users/jon_000/Git/ALFRED_TEST/Release/arduino.ar(WString.cpp.o)
operator+(StringSumHelper const&, int)            C:/Users/jon_000/Git/ALFRED_TEST/Release/arduino.ar(WString.cpp.o)
operator+(StringSumHelper const&, long)           C:/Users/jon_000/Git/ALFRED_TEST/Release/arduino.ar(WString.cpp.o)
operator+(StringSumHelper const&, unsigned char)  C:/Users/jon_000/Git/ALFRED_TEST/Release/arduino.ar(WString.cpp.o)
operator+(StringSumHelper const&, unsigned int)   C:/Users/jon_000/Git/ALFRED_TEST/Release/arduino.ar(WString.cpp.o)
operator+(StringSumHelper const&, unsigned long)  C:/Users/jon_000/Git/ALFRED_TEST/Release/arduino.ar(WString.cpp.o)
parseCommand(char*, int*, unsigned char)          ./ALFRED_TEST.cpp.o
pendSVHook                                        C:/Users/jon_000/Git/ALFRED_TEST/Release/arduino.ar(hooks.c.o)
                                                  C:/Users/jon_000/Git/ALFRED_TEST/Release/arduino.ar(cortex_handlers.c.o)
pinMode                                           C:/Users/jon_000/Git/ALFRED_TEST/Release/arduino.ar(wiring_digital.c.o)
                                                  C:/Users/jon_000/Git/ALFRED_TEST/Release/arduino.ar(wiring_analog.c.o)
                                                  ./ALFRED_TEST.cpp.o
pmc_clr_fast_startup_input                        C:/Arduino/hardware/arduino/sam/variants/arduino_due_x/libsam_sam3x8e_gcc_rel.a(pmc.o)
pmc_disable_all_pck                               C:/Arduino/hardware/arduino/sam/variants/arduino_due_x/libsam_sam3x8e_gcc_rel.a(pmc.o)
pmc_disable_all_periph_clk                        C:/Arduino/hardware/arduino/sam/variants/arduino_due_x/libsam_sam3x8e_gcc_rel.a(pmc.o)
pmc_disable_interrupt                             C:/Arduino/hardware/arduino/sam/variants/arduino_due_x/libsam_sam3x8e_gcc_rel.a(pmc.o)
pmc_disable_pck                                   C:/Arduino/hardware/arduino/sam/variants/arduino_due_x/libsam_sam3x8e_gcc_rel.a(pmc.o)
pmc_disable_periph_clk                            C:/Arduino/hardware/arduino/sam/variants/arduino_due_x/libsam_sam3x8e_gcc_rel.a(pmc.o)
                                                  C:/Users/jon_000/Git/ALFRED_TEST/Release/arduino.ar(wiring_digital.c.o)
                                                  C:/Users/jon_000/Git/ALFRED_TEST/Release/arduino.ar(USARTClass.cpp.o)
                                                  C:/Users/jon_000/Git/ALFRED_TEST/Release/arduino.ar(UARTClass.cpp.o)
pmc_disable_pllack                                C:/Arduino/hardware/arduino/sam/variants/arduino_due_x/libsam_sam3x8e_gcc_rel.a(pmc.o)
pmc_disable_udpck                                 C:/Arduino/hardware/arduino/sam/variants/arduino_due_x/libsam_sam3x8e_gcc_rel.a(pmc.o)
pmc_disable_upll_clock                            C:/Arduino/hardware/arduino/sam/variants/arduino_due_x/libsam_sam3x8e_gcc_rel.a(pmc.o)
pmc_enable_all_pck                                C:/Arduino/hardware/arduino/sam/variants/arduino_due_x/libsam_sam3x8e_gcc_rel.a(pmc.o)
pmc_enable_all_periph_clk                         C:/Arduino/hardware/arduino/sam/variants/arduino_due_x/libsam_sam3x8e_gcc_rel.a(pmc.o)
pmc_enable_backupmode                             C:/Arduino/hardware/arduino/sam/variants/arduino_due_x/libsam_sam3x8e_gcc_rel.a(pmc.o)
pmc_enable_interrupt                              C:/Arduino/hardware/arduino/sam/variants/arduino_due_x/libsam_sam3x8e_gcc_rel.a(pmc.o)
pmc_enable_pck                                    C:/Arduino/hardware/arduino/sam/variants/arduino_due_x/libsam_sam3x8e_gcc_rel.a(pmc.o)
pmc_enable_periph_clk                             C:/Arduino/hardware/arduino/sam/variants/arduino_due_x/libsam_sam3x8e_gcc_rel.a(pmc.o)
                                                  C:/Arduino/hardware/arduino/sam/variants/arduino_due_x/libsam_sam3x8e_gcc_rel.a(uotghs_device.o)
                                                  C:/Users/jon_000/Git/ALFRED_TEST/Release/arduino.ar(WInterrupts.c.o)
                                                  C:/Users/jon_000/Git/ALFRED_TEST/Release/arduino.ar(wiring_digital.c.o)
                                                  C:/Users/jon_000/Git/ALFRED_TEST/Release/arduino.ar(wiring_analog.c.o)
                                                  C:/Users/jon_000/Git/ALFRED_TEST/Release/arduino.ar(USARTClass.cpp.o)
                                                  C:/Users/jon_000/Git/ALFRED_TEST/Release/arduino.ar(UARTClass.cpp.o)
                                                  C:/Users/jon_000/Git/ALFRED_TEST/Release/arduino.ar(variant.cpp.o)
                                                  ./Libraries/DueTimer/DueTimer.cpp.o
pmc_enable_pllack                                 C:/Arduino/hardware/arduino/sam/variants/arduino_due_x/libsam_sam3x8e_gcc_rel.a(pmc.o)
pmc_enable_sleepmode                              C:/Arduino/hardware/arduino/sam/variants/arduino_due_x/libsam_sam3x8e_gcc_rel.a(pmc.o)
pmc_enable_udpck                                  C:/Arduino/hardware/arduino/sam/variants/arduino_due_x/libsam_sam3x8e_gcc_rel.a(pmc.o)
                                                  C:/Arduino/hardware/arduino/sam/variants/arduino_due_x/libsam_sam3x8e_gcc_rel.a(uotghs_device.o)
pmc_enable_upll_clock                             C:/Arduino/hardware/arduino/sam/variants/arduino_due_x/libsam_sam3x8e_gcc_rel.a(pmc.o)
                                                  C:/Arduino/hardware/arduino/sam/variants/arduino_due_x/libsam_sam3x8e_gcc_rel.a(uotghs_device.o)
pmc_enable_waitmode                               C:/Arduino/hardware/arduino/sam/variants/arduino_due_x/libsam_sam3x8e_gcc_rel.a(pmc.o)
pmc_get_interrupt_mask                            C:/Arduino/hardware/arduino/sam/variants/arduino_due_x/libsam_sam3x8e_gcc_rel.a(pmc.o)
pmc_get_status                                    C:/Arduino/hardware/arduino/sam/variants/arduino_due_x/libsam_sam3x8e_gcc_rel.a(pmc.o)
pmc_get_writeprotect_status                       C:/Arduino/hardware/arduino/sam/variants/arduino_due_x/libsam_sam3x8e_gcc_rel.a(pmc.o)
pmc_is_locked_pllack                              C:/Arduino/hardware/arduino/sam/variants/arduino_due_x/libsam_sam3x8e_gcc_rel.a(pmc.o)
pmc_is_locked_upll                                C:/Arduino/hardware/arduino/sam/variants/arduino_due_x/libsam_sam3x8e_gcc_rel.a(pmc.o)
pmc_is_pck_enabled                                C:/Arduino/hardware/arduino/sam/variants/arduino_due_x/libsam_sam3x8e_gcc_rel.a(pmc.o)
pmc_is_periph_clk_enabled                         C:/Arduino/hardware/arduino/sam/variants/arduino_due_x/libsam_sam3x8e_gcc_rel.a(pmc.o)
pmc_mck_set_prescaler                             C:/Arduino/hardware/arduino/sam/variants/arduino_due_x/libsam_sam3x8e_gcc_rel.a(pmc.o)
pmc_mck_set_source                                C:/Arduino/hardware/arduino/sam/variants/arduino_due_x/libsam_sam3x8e_gcc_rel.a(pmc.o)
pmc_osc_disable_fastrc                            C:/Arduino/hardware/arduino/sam/variants/arduino_due_x/libsam_sam3x8e_gcc_rel.a(pmc.o)
pmc_osc_disable_xtal                              C:/Arduino/hardware/arduino/sam/variants/arduino_due_x/libsam_sam3x8e_gcc_rel.a(pmc.o)
pmc_osc_enable_fastrc                             C:/Arduino/hardware/arduino/sam/variants/arduino_due_x/libsam_sam3x8e_gcc_rel.a(pmc.o)
pmc_osc_is_ready_32kxtal                          C:/Arduino/hardware/arduino/sam/variants/arduino_due_x/libsam_sam3x8e_gcc_rel.a(pmc.o)
pmc_osc_is_ready_mainck                           C:/Arduino/hardware/arduino/sam/variants/arduino_due_x/libsam_sam3x8e_gcc_rel.a(pmc.o)
pmc_pck_set_prescaler                             C:/Arduino/hardware/arduino/sam/variants/arduino_due_x/libsam_sam3x8e_gcc_rel.a(pmc.o)
pmc_pck_set_source                                C:/Arduino/hardware/arduino/sam/variants/arduino_due_x/libsam_sam3x8e_gcc_rel.a(pmc.o)
pmc_set_fast_startup_input                        C:/Arduino/hardware/arduino/sam/variants/arduino_due_x/libsam_sam3x8e_gcc_rel.a(pmc.o)
pmc_set_writeprotect                              C:/Arduino/hardware/arduino/sam/variants/arduino_due_x/libsam_sam3x8e_gcc_rel.a(pmc.o)
                                                  ./Libraries/DueTimer/DueTimer.cpp.o
pmc_switch_mainck_to_fastrc                       C:/Arduino/hardware/arduino/sam/variants/arduino_due_x/libsam_sam3x8e_gcc_rel.a(pmc.o)
pmc_switch_mainck_to_xtal                         C:/Arduino/hardware/arduino/sam/variants/arduino_due_x/libsam_sam3x8e_gcc_rel.a(pmc.o)
pmc_switch_mck_to_mainck                          C:/Arduino/hardware/arduino/sam/variants/arduino_due_x/libsam_sam3x8e_gcc_rel.a(pmc.o)
pmc_switch_mck_to_pllack                          C:/Arduino/hardware/arduino/sam/variants/arduino_due_x/libsam_sam3x8e_gcc_rel.a(pmc.o)
pmc_switch_mck_to_sclk                            C:/Arduino/hardware/arduino/sam/variants/arduino_due_x/libsam_sam3x8e_gcc_rel.a(pmc.o)
pmc_switch_mck_to_upllck                          C:/Arduino/hardware/arduino/sam/variants/arduino_due_x/libsam_sam3x8e_gcc_rel.a(pmc.o)
pmc_switch_pck_to_mainck                          C:/Arduino/hardware/arduino/sam/variants/arduino_due_x/libsam_sam3x8e_gcc_rel.a(pmc.o)
pmc_switch_pck_to_pllack                          C:/Arduino/hardware/arduino/sam/variants/arduino_due_x/libsam_sam3x8e_gcc_rel.a(pmc.o)
pmc_switch_pck_to_sclk                            C:/Arduino/hardware/arduino/sam/variants/arduino_due_x/libsam_sam3x8e_gcc_rel.a(pmc.o)
pmc_switch_pck_to_upllck                          C:/Arduino/hardware/arduino/sam/variants/arduino_due_x/libsam_sam3x8e_gcc_rel.a(pmc.o)
pmc_switch_sclk_to_32kxtal                        C:/Arduino/hardware/arduino/sam/variants/arduino_due_x/libsam_sam3x8e_gcc_rel.a(pmc.o)
pmc_switch_udpck_to_pllack                        C:/Arduino/hardware/arduino/sam/variants/arduino_due_x/libsam_sam3x8e_gcc_rel.a(pmc.o)
pmc_switch_udpck_to_upllck                        C:/Arduino/hardware/arduino/sam/variants/arduino_due_x/libsam_sam3x8e_gcc_rel.a(pmc.o)
                                                  C:/Arduino/hardware/arduino/sam/variants/arduino_due_x/libsam_sam3x8e_gcc_rel.a(uotghs_device.o)
raise                                             c:/arduino/hardware/tools/g++_arm_none_eabi/bin/../lib/gcc/arm-none-eabi/4.4.1/../../../../arm-none-eabi/lib/thumb2\libc.a(lib_a-signal.o)
                                                  c:/arduino/hardware/tools/g++_arm_none_eabi/bin/../lib/gcc/arm-none-eabi/4.4.1/../../../../arm-none-eabi/lib/thumb2\libc.a(lib_a-abort.o)
realloc                                           c:/arduino/hardware/tools/g++_arm_none_eabi/bin/../lib/gcc/arm-none-eabi/4.4.1/../../../../arm-none-eabi/lib/thumb2\libc.a(lib_a-realloc.o)
                                                  C:/Users/jon_000/Git/ALFRED_TEST/Release/arduino.ar(WString.cpp.o)
reset()                                           ./ALFRED_TEST.cpp.o
rx_buffer1                                        C:/Users/jon_000/Git/ALFRED_TEST/Release/arduino.ar(variant.cpp.o)
rx_buffer2                                        C:/Users/jon_000/Git/ALFRED_TEST/Release/arduino.ar(variant.cpp.o)
rx_buffer3                                        C:/Users/jon_000/Git/ALFRED_TEST/Release/arduino.ar(variant.cpp.o)
rx_buffer4                                        C:/Users/jon_000/Git/ALFRED_TEST/Release/arduino.ar(variant.cpp.o)
serialData                                        ./ALFRED_TEST.cpp.o
serialEvent()                                     C:/Users/jon_000/Git/ALFRED_TEST/Release/arduino.ar(variant.cpp.o)
serialEvent1()                                    C:/Users/jon_000/Git/ALFRED_TEST/Release/arduino.ar(variant.cpp.o)
serialEvent2()                                    C:/Users/jon_000/Git/ALFRED_TEST/Release/arduino.ar(variant.cpp.o)
serialEvent3()                                    C:/Users/jon_000/Git/ALFRED_TEST/Release/arduino.ar(variant.cpp.o)
serialEventRun()                                  C:/Users/jon_000/Git/ALFRED_TEST/Release/arduino.ar(variant.cpp.o)
                                                  C:/Users/jon_000/Git/ALFRED_TEST/Release/arduino.ar(main.cpp.o)
setlocale                                         c:/arduino/hardware/tools/g++_arm_none_eabi/bin/../lib/gcc/arm-none-eabi/4.4.1/../../../../arm-none-eabi/lib/thumb2\libc.a(lib_a-locale.o)
setup                                             ./ALFRED_TEST.cpp.o
                                                  C:/Users/jon_000/Git/ALFRED_TEST/Release/arduino.ar(main.cpp.o)
signal                                            c:/arduino/hardware/tools/g++_arm_none_eabi/bin/../lib/gcc/arm-none-eabi/4.4.1/../../../../arm-none-eabi/lib/thumb2\libc.a(lib_a-signal.o)
sprintf                                           c:/arduino/hardware/tools/g++_arm_none_eabi/bin/../lib/gcc/arm-none-eabi/4.4.1/../../../../arm-none-eabi/lib/thumb2\libc.a(lib_a-sprintf.o)
                                                  C:/Users/jon_000/Git/ALFRED_TEST/Release/arduino.ar(dtostrf.c.o)
strchr                                            c:/arduino/hardware/tools/g++_arm_none_eabi/bin/../lib/gcc/arm-none-eabi/4.4.1/../../../../arm-none-eabi/lib/thumb2\libc.a(lib_a-strchr.o)
                                                  c:/arduino/hardware/tools/g++_arm_none_eabi/bin/../lib/gcc/arm-none-eabi/4.4.1/../../../../arm-none-eabi/lib/thumb2\libc.a(lib_a-strstr.o)
                                                  c:/arduino/hardware/tools/g++_arm_none_eabi/bin/../lib/gcc/arm-none-eabi/4.4.1/../../../../arm-none-eabi/lib/thumb2\libc.a(lib_a-strrchr.o)
                                                  C:/Users/jon_000/Git/ALFRED_TEST/Release/arduino.ar(WString.cpp.o)
strcmp                                            c:/arduino/hardware/tools/g++_arm_none_eabi/bin/../lib/gcc/arm-none-eabi/4.4.1/../../../../arm-none-eabi/lib/thumb2\libc.a(lib_a-strcmp.o)
                                                  c:/arduino/hardware/tools/g++_arm_none_eabi/bin/../lib/gcc/arm-none-eabi/4.4.1/../../../../arm-none-eabi/lib/thumb2\libc.a(lib_a-locale.o)
                                                  C:/Users/jon_000/Git/ALFRED_TEST/Release/arduino.ar(WString.cpp.o)
strcpy                                            c:/arduino/hardware/tools/g++_arm_none_eabi/bin/../lib/gcc/arm-none-eabi/4.4.1/../../../../arm-none-eabi/lib/thumb2\libc.a(lib_a-strcpy.o)
                                                  C:/Users/jon_000/Git/ALFRED_TEST/Release/arduino.ar(WString.cpp.o)
strlen                                            c:/arduino/hardware/tools/g++_arm_none_eabi/bin/../lib/gcc/arm-none-eabi/4.4.1/../../../../arm-none-eabi/lib/thumb2\libc.a(lib_a-strlen.o)
                                                  c:/arduino/hardware/tools/g++_arm_none_eabi/bin/../lib/gcc/arm-none-eabi/4.4.1/../../../../arm-none-eabi/lib/thumb2\libc.a(lib_a-vfiprintf.o)
                                                  c:/arduino/hardware/tools/g++_arm_none_eabi/bin/../lib/gcc/arm-none-eabi/4.4.1/../../../../arm-none-eabi/lib/thumb2\libc.a(lib_a-svfprintf.o)
                                                  C:/Users/jon_000/Git/ALFRED_TEST/Release/arduino.ar(WString.cpp.o)
                                                  C:/Users/jon_000/Git/ALFRED_TEST/Release/arduino.ar(Stream.cpp.o)
                                                  C:/Users/jon_000/Git/ALFRED_TEST/Release/arduino.ar(Print.cpp.o)
strncmp                                           c:/arduino/hardware/tools/g++_arm_none_eabi/bin/../lib/gcc/arm-none-eabi/4.4.1/../../../../arm-none-eabi/lib/thumb2\libc.a(lib_a-strncmp.o)
                                                  C:/Users/jon_000/Git/ALFRED_TEST/Release/arduino.ar(WString.cpp.o)
strncpy                                           c:/arduino/hardware/tools/g++_arm_none_eabi/bin/../lib/gcc/arm-none-eabi/4.4.1/../../../../arm-none-eabi/lib/thumb2\libc.a(lib_a-strncpy.o)
                                                  C:/Users/jon_000/Git/ALFRED_TEST/Release/arduino.ar(WString.cpp.o)
strrchr                                           c:/arduino/hardware/tools/g++_arm_none_eabi/bin/../lib/gcc/arm-none-eabi/4.4.1/../../../../arm-none-eabi/lib/thumb2\libc.a(lib_a-strrchr.o)
                                                  C:/Users/jon_000/Git/ALFRED_TEST/Release/arduino.ar(WString.cpp.o)
strstr                                            c:/arduino/hardware/tools/g++_arm_none_eabi/bin/../lib/gcc/arm-none-eabi/4.4.1/../../../../arm-none-eabi/lib/thumb2\libc.a(lib_a-strstr.o)
                                                  C:/Users/jon_000/Git/ALFRED_TEST/Release/arduino.ar(WString.cpp.o)
strtod                                            c:/arduino/hardware/tools/g++_arm_none_eabi/bin/../lib/gcc/arm-none-eabi/4.4.1/../../../../arm-none-eabi/lib/thumb2\libc.a(lib_a-strtod.o)
                                                  c:/arduino/hardware/tools/g++_arm_none_eabi/bin/../lib/gcc/arm-none-eabi/4.4.1/../../../../arm-none-eabi/lib/thumb2\libc.a(lib_a-atof.o)
strtof                                            c:/arduino/hardware/tools/g++_arm_none_eabi/bin/../lib/gcc/arm-none-eabi/4.4.1/../../../../arm-none-eabi/lib/thumb2\libc.a(lib_a-strtod.o)
strtol                                            c:/arduino/hardware/tools/g++_arm_none_eabi/bin/../lib/gcc/arm-none-eabi/4.4.1/../../../../arm-none-eabi/lib/thumb2\libc.a(lib_a-strtol.o)
                                                  c:/arduino/hardware/tools/g++_arm_none_eabi/bin/../lib/gcc/arm-none-eabi/4.4.1/../../../../arm-none-eabi/lib/thumb2\libc.a(lib_a-atol.o)
svcHook                                           C:/Users/jon_000/Git/ALFRED_TEST/Release/arduino.ar(hooks.c.o)
                                                  C:/Users/jon_000/Git/ALFRED_TEST/Release/arduino.ar(cortex_handlers.c.o)
sysTickHook                                       C:/Users/jon_000/Git/ALFRED_TEST/Release/arduino.ar(hooks.c.o)
                                                  C:/Users/jon_000/Git/ALFRED_TEST/Release/arduino.ar(cortex_handlers.c.o)
system_init_flash                                 C:/Arduino/hardware/arduino/sam/variants/arduino_due_x/libsam_sam3x8e_gcc_rel.a(system_sam3xa.o)
tickReset                                         C:/Users/jon_000/Git/ALFRED_TEST/Release/arduino.ar(Reset.cpp.o)
                                                  C:/Users/jon_000/Git/ALFRED_TEST/Release/arduino.ar(cortex_handlers.c.o)
timeout_handler()                                 ./ALFRED_TEST.cpp.o
timerCounter                                      ./ALFRED_TEST.cpp.o
tolower                                           c:/arduino/hardware/tools/g++_arm_none_eabi/bin/../lib/gcc/arm-none-eabi/4.4.1/../../../../arm-none-eabi/lib/thumb2\libc.a(lib_a-tolower.o)
                                                  C:/Users/jon_000/Git/ALFRED_TEST/Release/arduino.ar(WString.cpp.o)
toupper                                           c:/arduino/hardware/tools/g++_arm_none_eabi/bin/../lib/gcc/arm-none-eabi/4.4.1/../../../../arm-none-eabi/lib/thumb2\libc.a(lib_a-toupper.o)
                                                  C:/Users/jon_000/Git/ALFRED_TEST/Release/arduino.ar(WString.cpp.o)
ultoa                                             C:/Users/jon_000/Git/ALFRED_TEST/Release/arduino.ar(itoa.c.o)
                                                  C:/Users/jon_000/Git/ALFRED_TEST/Release/arduino.ar(WString.cpp.o)
utoa                                              C:/Users/jon_000/Git/ALFRED_TEST/Release/arduino.ar(itoa.c.o)
                                                  C:/Users/jon_000/Git/ALFRED_TEST/Release/arduino.ar(WString.cpp.o)
vfiprintf                                         c:/arduino/hardware/tools/g++_arm_none_eabi/bin/../lib/gcc/arm-none-eabi/4.4.1/../../../../arm-none-eabi/lib/thumb2\libc.a(lib_a-vfiprintf.o)
vtable for HardwareSerial                         C:/Users/jon_000/Git/ALFRED_TEST/Release/arduino.ar(UARTClass.cpp.o)
                                                  C:/Users/jon_000/Git/ALFRED_TEST/Release/arduino.ar(USARTClass.cpp.o)
vtable for Keyboard_                              C:/Users/jon_000/Git/ALFRED_TEST/Release/arduino.ar(HID.cpp.o)
vtable for Print                                  C:/Users/jon_000/Git/ALFRED_TEST/Release/arduino.ar(Print.cpp.o)
vtable for Serial_                                C:/Users/jon_000/Git/ALFRED_TEST/Release/arduino.ar(CDC.cpp.o)
vtable for Stream                                 C:/Users/jon_000/Git/ALFRED_TEST/Release/arduino.ar(UARTClass.cpp.o)
                                                  C:/Users/jon_000/Git/ALFRED_TEST/Release/arduino.ar(CDC.cpp.o)
                                                  C:/Users/jon_000/Git/ALFRED_TEST/Release/arduino.ar(USARTClass.cpp.o)
vtable for UARTClass                              C:/Users/jon_000/Git/ALFRED_TEST/Release/arduino.ar(UARTClass.cpp.o)
vtable for USARTClass                             C:/Users/jon_000/Git/ALFRED_TEST/Release/arduino.ar(USARTClass.cpp.o)
yield                                             C:/Users/jon_000/Git/ALFRED_TEST/Release/arduino.ar(hooks.c.o)
                                                  C:/Users/jon_000/Git/ALFRED_TEST/Release/arduino.ar(wiring.c.o)
